
WristWatch.elf:     file format elf32-littlearm

Sections:
Idx Name          Size      VMA       LMA       File off  Algn
  0 .isr_vector   0000018c  08000000  08000000  00010000  2**0
                  CONTENTS, ALLOC, LOAD, READONLY, DATA
  1 .text         00004f18  0800018c  0800018c  0001018c  2**2
                  CONTENTS, ALLOC, LOAD, READONLY, CODE
  2 .rodata       00001514  080050a4  080050a4  000150a4  2**2
                  CONTENTS, ALLOC, LOAD, READONLY, DATA
  3 .ARM.extab    00000000  080065b8  080065b8  00020074  2**0
                  CONTENTS
  4 .ARM          00000000  080065b8  080065b8  00020074  2**0
                  CONTENTS
  5 .preinit_array 00000000  080065b8  080065b8  00020074  2**0
                  CONTENTS, ALLOC, LOAD, DATA
  6 .init_array   00000014  080065b8  080065b8  000165b8  2**2
                  CONTENTS, ALLOC, LOAD, DATA
  7 .fini_array   00000004  080065cc  080065cc  000165cc  2**2
                  CONTENTS, ALLOC, LOAD, DATA
  8 .data         00000074  20000000  080065d0  00020000  2**2
                  CONTENTS, ALLOC, LOAD, DATA
  9 .bss          000003cc  20000080  08006644  00020080  2**4
                  ALLOC
 10 ._user_heap_stack 00000604  2000044c  08006644  0002044c  2**0
                  ALLOC
 11 .ARM.attributes 00000030  00000000  00000000  00020074  2**0
                  CONTENTS, READONLY
 12 .comment      0000007b  00000000  00000000  000200a4  2**0
                  CONTENTS, READONLY
 13 .debug_frame  0000004c  00000000  00000000  00020120  2**2
                  CONTENTS, READONLY, DEBUGGING

Disassembly of section .text:

0800018c <__do_global_dtors_aux>:
 800018c:	b510      	push	{r4, lr}
 800018e:	4c05      	ldr	r4, [pc, #20]	; (80001a4 <__do_global_dtors_aux+0x18>)
 8000190:	7823      	ldrb	r3, [r4, #0]
 8000192:	b933      	cbnz	r3, 80001a2 <__do_global_dtors_aux+0x16>
 8000194:	4b04      	ldr	r3, [pc, #16]	; (80001a8 <__do_global_dtors_aux+0x1c>)
 8000196:	b113      	cbz	r3, 800019e <__do_global_dtors_aux+0x12>
 8000198:	4804      	ldr	r0, [pc, #16]	; (80001ac <__do_global_dtors_aux+0x20>)
 800019a:	f3af 8000 	nop.w
 800019e:	2301      	movs	r3, #1
 80001a0:	7023      	strb	r3, [r4, #0]
 80001a2:	bd10      	pop	{r4, pc}
 80001a4:	20000080 	.word	0x20000080
 80001a8:	00000000 	.word	0x00000000
 80001ac:	0800508c 	.word	0x0800508c

080001b0 <frame_dummy>:
 80001b0:	b508      	push	{r3, lr}
 80001b2:	4b03      	ldr	r3, [pc, #12]	; (80001c0 <frame_dummy+0x10>)
 80001b4:	b11b      	cbz	r3, 80001be <frame_dummy+0xe>
 80001b6:	4903      	ldr	r1, [pc, #12]	; (80001c4 <frame_dummy+0x14>)
 80001b8:	4803      	ldr	r0, [pc, #12]	; (80001c8 <frame_dummy+0x18>)
 80001ba:	f3af 8000 	nop.w
 80001be:	bd08      	pop	{r3, pc}
 80001c0:	00000000 	.word	0x00000000
 80001c4:	20000084 	.word	0x20000084
 80001c8:	0800508c 	.word	0x0800508c

080001cc <HAL_RTC_AlarmAEventCallback>:
 80001cc:	f004 bbb0 	b.w	8004930 <RTC_Event_Callback>

080001d0 <main>:
 80001d0:	b508      	push	{r3, lr}
 80001d2:	f000 f961 	bl	8000498 <HAL_Init>
 80001d6:	f004 fc33 	bl	8004a40 <usermain_init>
 80001da:	f004 fca5 	bl	8004b28 <usermain_loop>
 80001de:	e7fc      	b.n	80001da <main+0xa>

080001e0 <MX_ADC1_Init>:
 80001e0:	b570      	push	{r4, r5, r6, lr}
 80001e2:	b086      	sub	sp, #24
 80001e4:	2100      	movs	r1, #0
 80001e6:	2218      	movs	r2, #24
 80001e8:	4668      	mov	r0, sp
 80001ea:	f004 ff47 	bl	800507c <memset>
 80001ee:	4c16      	ldr	r4, [pc, #88]	; (8000248 <MX_ADC1_Init+0x68>)
 80001f0:	4a16      	ldr	r2, [pc, #88]	; (800024c <MX_ADC1_Init+0x6c>)
 80001f2:	f44f 2380 	mov.w	r3, #262144	; 0x40000
 80001f6:	2500      	movs	r5, #0
 80001f8:	e9c4 2300 	strd	r2, r3, [r4]
 80001fc:	2308      	movs	r3, #8
 80001fe:	e9c4 3502 	strd	r3, r5, [r4, #8]
 8000202:	2604      	movs	r6, #4
 8000204:	2301      	movs	r3, #1
 8000206:	4620      	mov	r0, r4
 8000208:	7623      	strb	r3, [r4, #24]
 800020a:	61e3      	str	r3, [r4, #28]
 800020c:	6125      	str	r5, [r4, #16]
 800020e:	6166      	str	r6, [r4, #20]
 8000210:	7665      	strb	r5, [r4, #25]
 8000212:	f884 5020 	strb.w	r5, [r4, #32]
 8000216:	e9c4 550a 	strd	r5, r5, [r4, #40]	; 0x28
 800021a:	f884 5030 	strb.w	r5, [r4, #48]	; 0x30
 800021e:	6365      	str	r5, [r4, #52]	; 0x34
 8000220:	f884 5038 	strb.w	r5, [r4, #56]	; 0x38
 8000224:	f000 f99c 	bl	8000560 <HAL_ADC_Init>
 8000228:	4909      	ldr	r1, [pc, #36]	; (8000250 <MX_ADC1_Init+0x70>)
 800022a:	9502      	str	r5, [sp, #8]
 800022c:	2306      	movs	r3, #6
 800022e:	e9cd 1300 	strd	r1, r3, [sp]
 8000232:	4620      	mov	r0, r4
 8000234:	237f      	movs	r3, #127	; 0x7f
 8000236:	4669      	mov	r1, sp
 8000238:	e9cd 3603 	strd	r3, r6, [sp, #12]
 800023c:	9505      	str	r5, [sp, #20]
 800023e:	f000 faaf 	bl	80007a0 <HAL_ADC_ConfigChannel>
 8000242:	b006      	add	sp, #24
 8000244:	bd70      	pop	{r4, r5, r6, pc}
 8000246:	bf00      	nop
 8000248:	2000035c 	.word	0x2000035c
 800024c:	50040000 	.word	0x50040000
 8000250:	80000001 	.word	0x80000001

08000254 <MX_SPI1_Init>:
 8000254:	480d      	ldr	r0, [pc, #52]	; (800028c <MX_SPI1_Init+0x38>)
 8000256:	4a0e      	ldr	r2, [pc, #56]	; (8000290 <MX_SPI1_Init+0x3c>)
 8000258:	f44f 7382 	mov.w	r3, #260	; 0x104
 800025c:	e9c0 2300 	strd	r2, r3, [r0]
 8000260:	2300      	movs	r3, #0
 8000262:	f44f 62e0 	mov.w	r2, #1792	; 0x700
 8000266:	e9c0 3202 	strd	r3, r2, [r0, #8]
 800026a:	f44f 7200 	mov.w	r2, #512	; 0x200
 800026e:	e9c0 2306 	strd	r2, r3, [r0, #24]
 8000272:	2207      	movs	r2, #7
 8000274:	e9c0 3304 	strd	r3, r3, [r0, #16]
 8000278:	e9c0 3308 	strd	r3, r3, [r0, #32]
 800027c:	6283      	str	r3, [r0, #40]	; 0x28
 800027e:	e9c0 230b 	strd	r2, r3, [r0, #44]	; 0x2c
 8000282:	2308      	movs	r3, #8
 8000284:	6343      	str	r3, [r0, #52]	; 0x34
 8000286:	f002 b9b0 	b.w	80025ea <HAL_SPI_Init>
 800028a:	bf00      	nop
 800028c:	200003e4 	.word	0x200003e4
 8000290:	40013000 	.word	0x40013000

08000294 <Error_Handler>:
 8000294:	4770      	bx	lr
	...

08000298 <HAL_MspInit>:
 8000298:	4b0a      	ldr	r3, [pc, #40]	; (80002c4 <HAL_MspInit+0x2c>)
 800029a:	6e1a      	ldr	r2, [r3, #96]	; 0x60
 800029c:	f042 0201 	orr.w	r2, r2, #1
 80002a0:	661a      	str	r2, [r3, #96]	; 0x60
 80002a2:	6e1a      	ldr	r2, [r3, #96]	; 0x60
 80002a4:	b082      	sub	sp, #8
 80002a6:	f002 0201 	and.w	r2, r2, #1
 80002aa:	9200      	str	r2, [sp, #0]
 80002ac:	9a00      	ldr	r2, [sp, #0]
 80002ae:	6d9a      	ldr	r2, [r3, #88]	; 0x58
 80002b0:	f042 5280 	orr.w	r2, r2, #268435456	; 0x10000000
 80002b4:	659a      	str	r2, [r3, #88]	; 0x58
 80002b6:	6d9b      	ldr	r3, [r3, #88]	; 0x58
 80002b8:	f003 5380 	and.w	r3, r3, #268435456	; 0x10000000
 80002bc:	9301      	str	r3, [sp, #4]
 80002be:	9b01      	ldr	r3, [sp, #4]
 80002c0:	b002      	add	sp, #8
 80002c2:	4770      	bx	lr
 80002c4:	40021000 	.word	0x40021000

080002c8 <HAL_ADC_MspInit>:
 80002c8:	6802      	ldr	r2, [r0, #0]
 80002ca:	4b09      	ldr	r3, [pc, #36]	; (80002f0 <HAL_ADC_MspInit+0x28>)
 80002cc:	429a      	cmp	r2, r3
 80002ce:	b082      	sub	sp, #8
 80002d0:	d10c      	bne.n	80002ec <HAL_ADC_MspInit+0x24>
 80002d2:	f103 4370 	add.w	r3, r3, #4026531840	; 0xf0000000
 80002d6:	f5a3 33f8 	sub.w	r3, r3, #126976	; 0x1f000
 80002da:	6cda      	ldr	r2, [r3, #76]	; 0x4c
 80002dc:	f442 5200 	orr.w	r2, r2, #8192	; 0x2000
 80002e0:	64da      	str	r2, [r3, #76]	; 0x4c
 80002e2:	6cdb      	ldr	r3, [r3, #76]	; 0x4c
 80002e4:	f403 5300 	and.w	r3, r3, #8192	; 0x2000
 80002e8:	9301      	str	r3, [sp, #4]
 80002ea:	9b01      	ldr	r3, [sp, #4]
 80002ec:	b002      	add	sp, #8
 80002ee:	4770      	bx	lr
 80002f0:	50040000 	.word	0x50040000

080002f4 <HAL_RTC_MspInit>:
 80002f4:	b508      	push	{r3, lr}
 80002f6:	6802      	ldr	r2, [r0, #0]
 80002f8:	4b0a      	ldr	r3, [pc, #40]	; (8000324 <HAL_RTC_MspInit+0x30>)
 80002fa:	429a      	cmp	r2, r3
 80002fc:	d110      	bne.n	8000320 <HAL_RTC_MspInit+0x2c>
 80002fe:	4a0a      	ldr	r2, [pc, #40]	; (8000328 <HAL_RTC_MspInit+0x34>)
 8000300:	f8d2 3090 	ldr.w	r3, [r2, #144]	; 0x90
 8000304:	f443 4300 	orr.w	r3, r3, #32768	; 0x8000
 8000308:	f8c2 3090 	str.w	r3, [r2, #144]	; 0x90
 800030c:	2200      	movs	r2, #0
 800030e:	2029      	movs	r0, #41	; 0x29
 8000310:	4611      	mov	r1, r2
 8000312:	f000 fdf3 	bl	8000efc <HAL_NVIC_SetPriority>
 8000316:	2029      	movs	r0, #41	; 0x29
 8000318:	e8bd 4008 	ldmia.w	sp!, {r3, lr}
 800031c:	f000 be22 	b.w	8000f64 <HAL_NVIC_EnableIRQ>
 8000320:	bd08      	pop	{r3, pc}
 8000322:	bf00      	nop
 8000324:	40002800 	.word	0x40002800
 8000328:	40021000 	.word	0x40021000

0800032c <HAL_SPI_MspInit>:
 800032c:	b510      	push	{r4, lr}
 800032e:	4604      	mov	r4, r0
 8000330:	b088      	sub	sp, #32
 8000332:	2214      	movs	r2, #20
 8000334:	2100      	movs	r1, #0
 8000336:	a803      	add	r0, sp, #12
 8000338:	f004 fea0 	bl	800507c <memset>
 800033c:	6822      	ldr	r2, [r4, #0]
 800033e:	4b12      	ldr	r3, [pc, #72]	; (8000388 <HAL_SPI_MspInit+0x5c>)
 8000340:	429a      	cmp	r2, r3
 8000342:	d11f      	bne.n	8000384 <HAL_SPI_MspInit+0x58>
 8000344:	f503 4360 	add.w	r3, r3, #57344	; 0xe000
 8000348:	2103      	movs	r1, #3
 800034a:	6e1a      	ldr	r2, [r3, #96]	; 0x60
 800034c:	480f      	ldr	r0, [pc, #60]	; (800038c <HAL_SPI_MspInit+0x60>)
 800034e:	f442 5280 	orr.w	r2, r2, #4096	; 0x1000
 8000352:	661a      	str	r2, [r3, #96]	; 0x60
 8000354:	6e1a      	ldr	r2, [r3, #96]	; 0x60
 8000356:	f402 5280 	and.w	r2, r2, #4096	; 0x1000
 800035a:	9201      	str	r2, [sp, #4]
 800035c:	9a01      	ldr	r2, [sp, #4]
 800035e:	6cda      	ldr	r2, [r3, #76]	; 0x4c
 8000360:	f042 0202 	orr.w	r2, r2, #2
 8000364:	64da      	str	r2, [r3, #76]	; 0x4c
 8000366:	6cdb      	ldr	r3, [r3, #76]	; 0x4c
 8000368:	f003 0302 	and.w	r3, r3, #2
 800036c:	9302      	str	r3, [sp, #8]
 800036e:	9b02      	ldr	r3, [sp, #8]
 8000370:	2238      	movs	r2, #56	; 0x38
 8000372:	2302      	movs	r3, #2
 8000374:	e9cd 2303 	strd	r2, r3, [sp, #12]
 8000378:	2305      	movs	r3, #5
 800037a:	e9cd 1306 	strd	r1, r3, [sp, #24]
 800037e:	a903      	add	r1, sp, #12
 8000380:	f000 fe14 	bl	8000fac <HAL_GPIO_Init>
 8000384:	b008      	add	sp, #32
 8000386:	bd10      	pop	{r4, pc}
 8000388:	40013000 	.word	0x40013000
 800038c:	48000400 	.word	0x48000400

08000390 <NMI_Handler>:
 8000390:	4770      	bx	lr

08000392 <HardFault_Handler>:
 8000392:	e7fe      	b.n	8000392 <HardFault_Handler>

08000394 <MemManage_Handler>:
 8000394:	e7fe      	b.n	8000394 <MemManage_Handler>

08000396 <BusFault_Handler>:
 8000396:	e7fe      	b.n	8000396 <BusFault_Handler>

08000398 <UsageFault_Handler>:
 8000398:	e7fe      	b.n	8000398 <UsageFault_Handler>

0800039a <SVC_Handler>:
 800039a:	4770      	bx	lr

0800039c <DebugMon_Handler>:
 800039c:	4770      	bx	lr

0800039e <PendSV_Handler>:
 800039e:	4770      	bx	lr

080003a0 <SysTick_Handler>:
 80003a0:	f000 b88a 	b.w	80004b8 <HAL_IncTick>

080003a4 <RTC_Alarm_IRQHandler>:
 80003a4:	4801      	ldr	r0, [pc, #4]	; (80003ac <RTC_Alarm_IRQHandler+0x8>)
 80003a6:	f001 bd5d 	b.w	8001e64 <HAL_RTC_AlarmIRQHandler>
 80003aa:	bf00      	nop
 80003ac:	200003c0 	.word	0x200003c0

080003b0 <SystemInit>:
 80003b0:	490f      	ldr	r1, [pc, #60]	; (80003f0 <SystemInit+0x40>)
 80003b2:	f8d1 3088 	ldr.w	r3, [r1, #136]	; 0x88
 80003b6:	f443 0370 	orr.w	r3, r3, #15728640	; 0xf00000
 80003ba:	f8c1 3088 	str.w	r3, [r1, #136]	; 0x88
 80003be:	4b0d      	ldr	r3, [pc, #52]	; (80003f4 <SystemInit+0x44>)
 80003c0:	681a      	ldr	r2, [r3, #0]
 80003c2:	2000      	movs	r0, #0
 80003c4:	f042 0201 	orr.w	r2, r2, #1
 80003c8:	601a      	str	r2, [r3, #0]
 80003ca:	6098      	str	r0, [r3, #8]
 80003cc:	681a      	ldr	r2, [r3, #0]
 80003ce:	f022 52a8 	bic.w	r2, r2, #352321536	; 0x15000000
 80003d2:	f422 2210 	bic.w	r2, r2, #589824	; 0x90000
 80003d6:	601a      	str	r2, [r3, #0]
 80003d8:	f44f 5280 	mov.w	r2, #4096	; 0x1000
 80003dc:	60da      	str	r2, [r3, #12]
 80003de:	681a      	ldr	r2, [r3, #0]
 80003e0:	f422 2280 	bic.w	r2, r2, #262144	; 0x40000
 80003e4:	601a      	str	r2, [r3, #0]
 80003e6:	6198      	str	r0, [r3, #24]
 80003e8:	f04f 6300 	mov.w	r3, #134217728	; 0x8000000
 80003ec:	608b      	str	r3, [r1, #8]
 80003ee:	4770      	bx	lr
 80003f0:	e000ed00 	.word	0xe000ed00
 80003f4:	40021000 	.word	0x40021000

080003f8 <Reset_Handler>:
 80003f8:	f8df d034 	ldr.w	sp, [pc, #52]	; 8000430 <LoopForever+0x2>
 80003fc:	2100      	movs	r1, #0
 80003fe:	e003      	b.n	8000408 <LoopCopyDataInit>

08000400 <CopyDataInit>:
 8000400:	4b0c      	ldr	r3, [pc, #48]	; (8000434 <LoopForever+0x6>)
 8000402:	585b      	ldr	r3, [r3, r1]
 8000404:	5043      	str	r3, [r0, r1]
 8000406:	3104      	adds	r1, #4

08000408 <LoopCopyDataInit>:
 8000408:	480b      	ldr	r0, [pc, #44]	; (8000438 <LoopForever+0xa>)
 800040a:	4b0c      	ldr	r3, [pc, #48]	; (800043c <LoopForever+0xe>)
 800040c:	1842      	adds	r2, r0, r1
 800040e:	429a      	cmp	r2, r3
 8000410:	d3f6      	bcc.n	8000400 <CopyDataInit>
 8000412:	4a0b      	ldr	r2, [pc, #44]	; (8000440 <LoopForever+0x12>)
 8000414:	e002      	b.n	800041c <LoopFillZerobss>

08000416 <FillZerobss>:
 8000416:	2300      	movs	r3, #0
 8000418:	f842 3b04 	str.w	r3, [r2], #4

0800041c <LoopFillZerobss>:
 800041c:	4b09      	ldr	r3, [pc, #36]	; (8000444 <LoopForever+0x16>)
 800041e:	429a      	cmp	r2, r3
 8000420:	d3f9      	bcc.n	8000416 <FillZerobss>
 8000422:	f7ff ffc5 	bl	80003b0 <SystemInit>
 8000426:	f004 fe05 	bl	8005034 <__libc_init_array>
 800042a:	f7ff fed1 	bl	80001d0 <main>

0800042e <LoopForever>:
 800042e:	e7fe      	b.n	800042e <LoopForever>
 8000430:	20010000 	.word	0x20010000
 8000434:	080065d0 	.word	0x080065d0
 8000438:	20000000 	.word	0x20000000
 800043c:	20000074 	.word	0x20000074
 8000440:	20000080 	.word	0x20000080
 8000444:	2000044c 	.word	0x2000044c

08000448 <ADC1_IRQHandler>:
 8000448:	e7fe      	b.n	8000448 <ADC1_IRQHandler>
	...

0800044c <HAL_InitTick>:
 800044c:	b538      	push	{r3, r4, r5, lr}
 800044e:	4b0f      	ldr	r3, [pc, #60]	; (800048c <HAL_InitTick+0x40>)
 8000450:	4605      	mov	r5, r0
 8000452:	7818      	ldrb	r0, [r3, #0]
 8000454:	b908      	cbnz	r0, 800045a <HAL_InitTick+0xe>
 8000456:	2001      	movs	r0, #1
 8000458:	bd38      	pop	{r3, r4, r5, pc}
 800045a:	4a0d      	ldr	r2, [pc, #52]	; (8000490 <HAL_InitTick+0x44>)
 800045c:	f44f 737a 	mov.w	r3, #1000	; 0x3e8
 8000460:	fbb3 f3f0 	udiv	r3, r3, r0
 8000464:	6810      	ldr	r0, [r2, #0]
 8000466:	fbb0 f0f3 	udiv	r0, r0, r3
 800046a:	f000 fd89 	bl	8000f80 <HAL_SYSTICK_Config>
 800046e:	4604      	mov	r4, r0
 8000470:	2800      	cmp	r0, #0
 8000472:	d1f0      	bne.n	8000456 <HAL_InitTick+0xa>
 8000474:	2d0f      	cmp	r5, #15
 8000476:	d8ee      	bhi.n	8000456 <HAL_InitTick+0xa>
 8000478:	4602      	mov	r2, r0
 800047a:	4629      	mov	r1, r5
 800047c:	f04f 30ff 	mov.w	r0, #4294967295	; 0xffffffff
 8000480:	f000 fd3c 	bl	8000efc <HAL_NVIC_SetPriority>
 8000484:	4b03      	ldr	r3, [pc, #12]	; (8000494 <HAL_InitTick+0x48>)
 8000486:	4620      	mov	r0, r4
 8000488:	601d      	str	r5, [r3, #0]
 800048a:	e7e5      	b.n	8000458 <HAL_InitTick+0xc>
 800048c:	20000004 	.word	0x20000004
 8000490:	20000000 	.word	0x20000000
 8000494:	20000008 	.word	0x20000008

08000498 <HAL_Init>:
 8000498:	b510      	push	{r4, lr}
 800049a:	2003      	movs	r0, #3
 800049c:	f000 fd1c 	bl	8000ed8 <HAL_NVIC_SetPriorityGrouping>
 80004a0:	2000      	movs	r0, #0
 80004a2:	f7ff ffd3 	bl	800044c <HAL_InitTick>
 80004a6:	4604      	mov	r4, r0
 80004a8:	b918      	cbnz	r0, 80004b2 <HAL_Init+0x1a>
 80004aa:	f7ff fef5 	bl	8000298 <HAL_MspInit>
 80004ae:	4620      	mov	r0, r4
 80004b0:	bd10      	pop	{r4, pc}
 80004b2:	2401      	movs	r4, #1
 80004b4:	e7fb      	b.n	80004ae <HAL_Init+0x16>
	...

080004b8 <HAL_IncTick>:
 80004b8:	4a03      	ldr	r2, [pc, #12]	; (80004c8 <HAL_IncTick+0x10>)
 80004ba:	4b04      	ldr	r3, [pc, #16]	; (80004cc <HAL_IncTick+0x14>)
 80004bc:	6811      	ldr	r1, [r2, #0]
 80004be:	781b      	ldrb	r3, [r3, #0]
 80004c0:	440b      	add	r3, r1
 80004c2:	6013      	str	r3, [r2, #0]
 80004c4:	4770      	bx	lr
 80004c6:	bf00      	nop
 80004c8:	20000448 	.word	0x20000448
 80004cc:	20000004 	.word	0x20000004

080004d0 <HAL_GetTick>:
 80004d0:	4b01      	ldr	r3, [pc, #4]	; (80004d8 <HAL_GetTick+0x8>)
 80004d2:	6818      	ldr	r0, [r3, #0]
 80004d4:	4770      	bx	lr
 80004d6:	bf00      	nop
 80004d8:	20000448 	.word	0x20000448

080004dc <HAL_Delay>:
 80004dc:	b538      	push	{r3, r4, r5, lr}
 80004de:	4604      	mov	r4, r0
 80004e0:	f7ff fff6 	bl	80004d0 <HAL_GetTick>
 80004e4:	1c63      	adds	r3, r4, #1
 80004e6:	bf1c      	itt	ne
 80004e8:	4b05      	ldrne	r3, [pc, #20]	; (8000500 <HAL_Delay+0x24>)
 80004ea:	781b      	ldrbne	r3, [r3, #0]
 80004ec:	4605      	mov	r5, r0
 80004ee:	bf18      	it	ne
 80004f0:	18e4      	addne	r4, r4, r3
 80004f2:	f7ff ffed 	bl	80004d0 <HAL_GetTick>
 80004f6:	1b40      	subs	r0, r0, r5
 80004f8:	42a0      	cmp	r0, r4
 80004fa:	d3fa      	bcc.n	80004f2 <HAL_Delay+0x16>
 80004fc:	bd38      	pop	{r3, r4, r5, pc}
 80004fe:	bf00      	nop
 8000500:	20000004 	.word	0x20000004

08000504 <HAL_DBGMCU_DisableDBGSleepMode>:
 8000504:	4a02      	ldr	r2, [pc, #8]	; (8000510 <HAL_DBGMCU_DisableDBGSleepMode+0xc>)
 8000506:	6853      	ldr	r3, [r2, #4]
 8000508:	f023 0301 	bic.w	r3, r3, #1
 800050c:	6053      	str	r3, [r2, #4]
 800050e:	4770      	bx	lr
 8000510:	e0042000 	.word	0xe0042000

08000514 <HAL_DBGMCU_DisableDBGStopMode>:
 8000514:	4a02      	ldr	r2, [pc, #8]	; (8000520 <HAL_DBGMCU_DisableDBGStopMode+0xc>)
 8000516:	6853      	ldr	r3, [r2, #4]
 8000518:	f023 0302 	bic.w	r3, r3, #2
 800051c:	6053      	str	r3, [r2, #4]
 800051e:	4770      	bx	lr
 8000520:	e0042000 	.word	0xe0042000

08000524 <HAL_DBGMCU_DisableDBGStandbyMode>:
 8000524:	4a02      	ldr	r2, [pc, #8]	; (8000530 <HAL_DBGMCU_DisableDBGStandbyMode+0xc>)
 8000526:	6853      	ldr	r3, [r2, #4]
 8000528:	f023 0304 	bic.w	r3, r3, #4
 800052c:	6053      	str	r3, [r2, #4]
 800052e:	4770      	bx	lr
 8000530:	e0042000 	.word	0xe0042000

08000534 <LL_ADC_SetChannelSamplingTime>:
 8000534:	b530      	push	{r4, r5, lr}
 8000536:	0dcc      	lsrs	r4, r1, #23
 8000538:	f004 0404 	and.w	r4, r4, #4
 800053c:	3014      	adds	r0, #20
 800053e:	f3c1 5104 	ubfx	r1, r1, #20, #5
 8000542:	5823      	ldr	r3, [r4, r0]
 8000544:	2507      	movs	r5, #7
 8000546:	408d      	lsls	r5, r1
 8000548:	ea23 0305 	bic.w	r3, r3, r5
 800054c:	fa02 f101 	lsl.w	r1, r2, r1
 8000550:	4319      	orrs	r1, r3
 8000552:	5021      	str	r1, [r4, r0]
 8000554:	bd30      	pop	{r4, r5, pc}

08000556 <LL_ADC_REG_IsConversionOngoing>:
 8000556:	6880      	ldr	r0, [r0, #8]
 8000558:	f3c0 0080 	ubfx	r0, r0, #2, #1
 800055c:	4770      	bx	lr
	...

08000560 <HAL_ADC_Init>:
 8000560:	b537      	push	{r0, r1, r2, r4, r5, lr}
 8000562:	2300      	movs	r3, #0
 8000564:	9301      	str	r3, [sp, #4]
 8000566:	4604      	mov	r4, r0
 8000568:	2800      	cmp	r0, #0
 800056a:	f000 8097 	beq.w	800069c <HAL_ADC_Init+0x13c>
 800056e:	6d45      	ldr	r5, [r0, #84]	; 0x54
 8000570:	b925      	cbnz	r5, 800057c <HAL_ADC_Init+0x1c>
 8000572:	f7ff fea9 	bl	80002c8 <HAL_ADC_MspInit>
 8000576:	65a5      	str	r5, [r4, #88]	; 0x58
 8000578:	f884 5050 	strb.w	r5, [r4, #80]	; 0x50
 800057c:	6820      	ldr	r0, [r4, #0]
 800057e:	6883      	ldr	r3, [r0, #8]
 8000580:	009d      	lsls	r5, r3, #2
 8000582:	bf41      	itttt	mi
 8000584:	6883      	ldrmi	r3, [r0, #8]
 8000586:	f023 4320 	bicmi.w	r3, r3, #2684354560	; 0xa0000000
 800058a:	f023 033f 	bicmi.w	r3, r3, #63	; 0x3f
 800058e:	6083      	strmi	r3, [r0, #8]
 8000590:	6883      	ldr	r3, [r0, #8]
 8000592:	00d9      	lsls	r1, r3, #3
 8000594:	d504      	bpl.n	80005a0 <HAL_ADC_Init+0x40>
 8000596:	6883      	ldr	r3, [r0, #8]
 8000598:	00da      	lsls	r2, r3, #3
 800059a:	d515      	bpl.n	80005c8 <HAL_ADC_Init+0x68>
 800059c:	2100      	movs	r1, #0
 800059e:	e01c      	b.n	80005da <HAL_ADC_Init+0x7a>
 80005a0:	6883      	ldr	r3, [r0, #8]
 80005a2:	4a51      	ldr	r2, [pc, #324]	; (80006e8 <HAL_ADC_Init+0x188>)
 80005a4:	f023 4310 	bic.w	r3, r3, #2415919104	; 0x90000000
 80005a8:	f023 033f 	bic.w	r3, r3, #63	; 0x3f
 80005ac:	f043 5380 	orr.w	r3, r3, #268435456	; 0x10000000
 80005b0:	6083      	str	r3, [r0, #8]
 80005b2:	4b4e      	ldr	r3, [pc, #312]	; (80006ec <HAL_ADC_Init+0x18c>)
 80005b4:	681b      	ldr	r3, [r3, #0]
 80005b6:	fbb3 f3f2 	udiv	r3, r3, r2
 80005ba:	9301      	str	r3, [sp, #4]
 80005bc:	9b01      	ldr	r3, [sp, #4]
 80005be:	2b00      	cmp	r3, #0
 80005c0:	d0e9      	beq.n	8000596 <HAL_ADC_Init+0x36>
 80005c2:	9b01      	ldr	r3, [sp, #4]
 80005c4:	3b01      	subs	r3, #1
 80005c6:	e7f8      	b.n	80005ba <HAL_ADC_Init+0x5a>
 80005c8:	6d63      	ldr	r3, [r4, #84]	; 0x54
 80005ca:	f043 0310 	orr.w	r3, r3, #16
 80005ce:	6563      	str	r3, [r4, #84]	; 0x54
 80005d0:	6da3      	ldr	r3, [r4, #88]	; 0x58
 80005d2:	f043 0301 	orr.w	r3, r3, #1
 80005d6:	65a3      	str	r3, [r4, #88]	; 0x58
 80005d8:	2101      	movs	r1, #1
 80005da:	f7ff ffbc 	bl	8000556 <LL_ADC_REG_IsConversionOngoing>
 80005de:	6d63      	ldr	r3, [r4, #84]	; 0x54
 80005e0:	f013 0f10 	tst.w	r3, #16
 80005e4:	6d63      	ldr	r3, [r4, #84]	; 0x54
 80005e6:	d156      	bne.n	8000696 <HAL_ADC_Init+0x136>
 80005e8:	2800      	cmp	r0, #0
 80005ea:	d154      	bne.n	8000696 <HAL_ADC_Init+0x136>
 80005ec:	f423 7381 	bic.w	r3, r3, #258	; 0x102
 80005f0:	f043 0302 	orr.w	r3, r3, #2
 80005f4:	6820      	ldr	r0, [r4, #0]
 80005f6:	6563      	str	r3, [r4, #84]	; 0x54
 80005f8:	6883      	ldr	r3, [r0, #8]
 80005fa:	07db      	lsls	r3, r3, #31
 80005fc:	d40a      	bmi.n	8000614 <HAL_ADC_Init+0xb4>
 80005fe:	4b3c      	ldr	r3, [pc, #240]	; (80006f0 <HAL_ADC_Init+0x190>)
 8000600:	689b      	ldr	r3, [r3, #8]
 8000602:	07dd      	lsls	r5, r3, #31
 8000604:	d406      	bmi.n	8000614 <HAL_ADC_Init+0xb4>
 8000606:	4a3b      	ldr	r2, [pc, #236]	; (80006f4 <HAL_ADC_Init+0x194>)
 8000608:	6865      	ldr	r5, [r4, #4]
 800060a:	6893      	ldr	r3, [r2, #8]
 800060c:	f423 137c 	bic.w	r3, r3, #4128768	; 0x3f0000
 8000610:	432b      	orrs	r3, r5
 8000612:	6093      	str	r3, [r2, #8]
 8000614:	68e5      	ldr	r5, [r4, #12]
 8000616:	6b63      	ldr	r3, [r4, #52]	; 0x34
 8000618:	f894 2020 	ldrb.w	r2, [r4, #32]
 800061c:	432b      	orrs	r3, r5
 800061e:	68a5      	ldr	r5, [r4, #8]
 8000620:	432b      	orrs	r3, r5
 8000622:	7e65      	ldrb	r5, [r4, #25]
 8000624:	2a01      	cmp	r2, #1
 8000626:	ea43 3345 	orr.w	r3, r3, r5, lsl #13
 800062a:	ea43 4302 	orr.w	r3, r3, r2, lsl #16
 800062e:	bf02      	ittt	eq
 8000630:	6a62      	ldreq	r2, [r4, #36]	; 0x24
 8000632:	f102 32ff 	addeq.w	r2, r2, #4294967295	; 0xffffffff
 8000636:	ea43 4342 	orreq.w	r3, r3, r2, lsl #17
 800063a:	6aa2      	ldr	r2, [r4, #40]	; 0x28
 800063c:	b122      	cbz	r2, 8000648 <HAL_ADC_Init+0xe8>
 800063e:	6ae5      	ldr	r5, [r4, #44]	; 0x2c
 8000640:	f402 7270 	and.w	r2, r2, #960	; 0x3c0
 8000644:	432a      	orrs	r2, r5
 8000646:	4313      	orrs	r3, r2
 8000648:	68c5      	ldr	r5, [r0, #12]
 800064a:	4a2b      	ldr	r2, [pc, #172]	; (80006f8 <HAL_ADC_Init+0x198>)
 800064c:	402a      	ands	r2, r5
 800064e:	4313      	orrs	r3, r2
 8000650:	60c3      	str	r3, [r0, #12]
 8000652:	f7ff ff80 	bl	8000556 <LL_ADC_REG_IsConversionOngoing>
 8000656:	6823      	ldr	r3, [r4, #0]
 8000658:	689a      	ldr	r2, [r3, #8]
 800065a:	0712      	lsls	r2, r2, #28
 800065c:	d520      	bpl.n	80006a0 <HAL_ADC_Init+0x140>
 800065e:	6922      	ldr	r2, [r4, #16]
 8000660:	2a01      	cmp	r2, #1
 8000662:	bf05      	ittet	eq
 8000664:	6b18      	ldreq	r0, [r3, #48]	; 0x30
 8000666:	69e2      	ldreq	r2, [r4, #28]
 8000668:	6b1a      	ldrne	r2, [r3, #48]	; 0x30
 800066a:	f102 32ff 	addeq.w	r2, r2, #4294967295	; 0xffffffff
 800066e:	bf06      	itte	eq
 8000670:	f020 000f 	biceq.w	r0, r0, #15
 8000674:	4302      	orreq	r2, r0
 8000676:	f022 020f 	bicne.w	r2, r2, #15
 800067a:	631a      	str	r2, [r3, #48]	; 0x30
 800067c:	6d63      	ldr	r3, [r4, #84]	; 0x54
 800067e:	f023 0303 	bic.w	r3, r3, #3
 8000682:	f043 0301 	orr.w	r3, r3, #1
 8000686:	6563      	str	r3, [r4, #84]	; 0x54
 8000688:	4608      	mov	r0, r1
 800068a:	b003      	add	sp, #12
 800068c:	bd30      	pop	{r4, r5, pc}
 800068e:	691a      	ldr	r2, [r3, #16]
 8000690:	f022 0201 	bic.w	r2, r2, #1
 8000694:	e026      	b.n	80006e4 <HAL_ADC_Init+0x184>
 8000696:	f043 0310 	orr.w	r3, r3, #16
 800069a:	6563      	str	r3, [r4, #84]	; 0x54
 800069c:	2101      	movs	r1, #1
 800069e:	e7f3      	b.n	8000688 <HAL_ADC_Init+0x128>
 80006a0:	2800      	cmp	r0, #0
 80006a2:	d1dc      	bne.n	800065e <HAL_ADC_Init+0xfe>
 80006a4:	68d8      	ldr	r0, [r3, #12]
 80006a6:	f894 2030 	ldrb.w	r2, [r4, #48]	; 0x30
 80006aa:	7e25      	ldrb	r5, [r4, #24]
 80006ac:	0052      	lsls	r2, r2, #1
 80006ae:	f420 4080 	bic.w	r0, r0, #16384	; 0x4000
 80006b2:	ea42 3285 	orr.w	r2, r2, r5, lsl #14
 80006b6:	f020 0002 	bic.w	r0, r0, #2
 80006ba:	4302      	orrs	r2, r0
 80006bc:	60da      	str	r2, [r3, #12]
 80006be:	f894 2038 	ldrb.w	r2, [r4, #56]	; 0x38
 80006c2:	2a01      	cmp	r2, #1
 80006c4:	d1e3      	bne.n	800068e <HAL_ADC_Init+0x12e>
 80006c6:	e9d4 250f 	ldrd	r2, r5, [r4, #60]	; 0x3c
 80006ca:	432a      	orrs	r2, r5
 80006cc:	6c65      	ldr	r5, [r4, #68]	; 0x44
 80006ce:	6918      	ldr	r0, [r3, #16]
 80006d0:	f042 0201 	orr.w	r2, r2, #1
 80006d4:	432a      	orrs	r2, r5
 80006d6:	6ca5      	ldr	r5, [r4, #72]	; 0x48
 80006d8:	f420 60ff 	bic.w	r0, r0, #2040	; 0x7f8
 80006dc:	432a      	orrs	r2, r5
 80006de:	f020 0004 	bic.w	r0, r0, #4
 80006e2:	4302      	orrs	r2, r0
 80006e4:	611a      	str	r2, [r3, #16]
 80006e6:	e7ba      	b.n	800065e <HAL_ADC_Init+0xfe>
 80006e8:	00030d40 	.word	0x00030d40
 80006ec:	20000000 	.word	0x20000000
 80006f0:	50040000 	.word	0x50040000
 80006f4:	50040300 	.word	0x50040300
 80006f8:	fff0c007 	.word	0xfff0c007

080006fc <HAL_ADC_PollForConversion>:
 80006fc:	b5f8      	push	{r3, r4, r5, r6, r7, lr}
 80006fe:	6945      	ldr	r5, [r0, #20]
 8000700:	2d08      	cmp	r5, #8
 8000702:	4604      	mov	r4, r0
 8000704:	460e      	mov	r6, r1
 8000706:	d00a      	beq.n	800071e <HAL_ADC_PollForConversion+0x22>
 8000708:	6803      	ldr	r3, [r0, #0]
 800070a:	68db      	ldr	r3, [r3, #12]
 800070c:	07dd      	lsls	r5, r3, #31
 800070e:	d505      	bpl.n	800071c <HAL_ADC_PollForConversion+0x20>
 8000710:	6d43      	ldr	r3, [r0, #84]	; 0x54
 8000712:	f043 0320 	orr.w	r3, r3, #32
 8000716:	6543      	str	r3, [r0, #84]	; 0x54
 8000718:	2001      	movs	r0, #1
 800071a:	bdf8      	pop	{r3, r4, r5, r6, r7, pc}
 800071c:	2504      	movs	r5, #4
 800071e:	f7ff fed7 	bl	80004d0 <HAL_GetTick>
 8000722:	4607      	mov	r7, r0
 8000724:	6823      	ldr	r3, [r4, #0]
 8000726:	681a      	ldr	r2, [r3, #0]
 8000728:	422a      	tst	r2, r5
 800072a:	d01d      	beq.n	8000768 <HAL_ADC_PollForConversion+0x6c>
 800072c:	6d62      	ldr	r2, [r4, #84]	; 0x54
 800072e:	f442 7200 	orr.w	r2, r2, #512	; 0x200
 8000732:	6562      	str	r2, [r4, #84]	; 0x54
 8000734:	68da      	ldr	r2, [r3, #12]
 8000736:	f412 6f40 	tst.w	r2, #3072	; 0xc00
 800073a:	d10f      	bne.n	800075c <HAL_ADC_PollForConversion+0x60>
 800073c:	7e62      	ldrb	r2, [r4, #25]
 800073e:	b96a      	cbnz	r2, 800075c <HAL_ADC_PollForConversion+0x60>
 8000740:	681a      	ldr	r2, [r3, #0]
 8000742:	0711      	lsls	r1, r2, #28
 8000744:	d50a      	bpl.n	800075c <HAL_ADC_PollForConversion+0x60>
 8000746:	6d62      	ldr	r2, [r4, #84]	; 0x54
 8000748:	f422 7280 	bic.w	r2, r2, #256	; 0x100
 800074c:	6562      	str	r2, [r4, #84]	; 0x54
 800074e:	6d62      	ldr	r2, [r4, #84]	; 0x54
 8000750:	04d2      	lsls	r2, r2, #19
 8000752:	bf5e      	ittt	pl
 8000754:	6d62      	ldrpl	r2, [r4, #84]	; 0x54
 8000756:	f042 0201 	orrpl.w	r2, r2, #1
 800075a:	6562      	strpl	r2, [r4, #84]	; 0x54
 800075c:	2d08      	cmp	r5, #8
 800075e:	68d8      	ldr	r0, [r3, #12]
 8000760:	d114      	bne.n	800078c <HAL_ADC_PollForConversion+0x90>
 8000762:	601d      	str	r5, [r3, #0]
 8000764:	2000      	movs	r0, #0
 8000766:	e7d8      	b.n	800071a <HAL_ADC_PollForConversion+0x1e>
 8000768:	1c70      	adds	r0, r6, #1
 800076a:	d0dc      	beq.n	8000726 <HAL_ADC_PollForConversion+0x2a>
 800076c:	f7ff feb0 	bl	80004d0 <HAL_GetTick>
 8000770:	1bc0      	subs	r0, r0, r7
 8000772:	42b0      	cmp	r0, r6
 8000774:	d801      	bhi.n	800077a <HAL_ADC_PollForConversion+0x7e>
 8000776:	2e00      	cmp	r6, #0
 8000778:	d1d4      	bne.n	8000724 <HAL_ADC_PollForConversion+0x28>
 800077a:	6d63      	ldr	r3, [r4, #84]	; 0x54
 800077c:	f043 0304 	orr.w	r3, r3, #4
 8000780:	6563      	str	r3, [r4, #84]	; 0x54
 8000782:	2300      	movs	r3, #0
 8000784:	f884 3050 	strb.w	r3, [r4, #80]	; 0x50
 8000788:	2003      	movs	r0, #3
 800078a:	e7c6      	b.n	800071a <HAL_ADC_PollForConversion+0x1e>
 800078c:	f410 4080 	ands.w	r0, r0, #16384	; 0x4000
 8000790:	d1e8      	bne.n	8000764 <HAL_ADC_PollForConversion+0x68>
 8000792:	220c      	movs	r2, #12
 8000794:	601a      	str	r2, [r3, #0]
 8000796:	e7c0      	b.n	800071a <HAL_ADC_PollForConversion+0x1e>

08000798 <HAL_ADC_GetValue>:
 8000798:	6803      	ldr	r3, [r0, #0]
 800079a:	6c18      	ldr	r0, [r3, #64]	; 0x40
 800079c:	4770      	bx	lr
	...

080007a0 <HAL_ADC_ConfigChannel>:
 80007a0:	b5f7      	push	{r0, r1, r2, r4, r5, r6, r7, lr}
 80007a2:	2300      	movs	r3, #0
 80007a4:	9301      	str	r3, [sp, #4]
 80007a6:	f890 3050 	ldrb.w	r3, [r0, #80]	; 0x50
 80007aa:	2b01      	cmp	r3, #1
 80007ac:	4605      	mov	r5, r0
 80007ae:	460c      	mov	r4, r1
 80007b0:	f000 8174 	beq.w	8000a9c <HAL_ADC_ConfigChannel+0x2fc>
 80007b4:	2301      	movs	r3, #1
 80007b6:	f880 3050 	strb.w	r3, [r0, #80]	; 0x50
 80007ba:	6800      	ldr	r0, [r0, #0]
 80007bc:	f7ff fecb 	bl	8000556 <LL_ADC_REG_IsConversionOngoing>
 80007c0:	2800      	cmp	r0, #0
 80007c2:	f040 8165 	bne.w	8000a90 <HAL_ADC_ConfigChannel+0x2f0>
 80007c6:	684b      	ldr	r3, [r1, #4]
 80007c8:	2b05      	cmp	r3, #5
 80007ca:	d808      	bhi.n	80007de <HAL_ADC_ConfigChannel+0x3e>
 80007cc:	3b02      	subs	r3, #2
 80007ce:	2b03      	cmp	r3, #3
 80007d0:	d864      	bhi.n	800089c <HAL_ADC_ConfigChannel+0xfc>
 80007d2:	e8df f003 	tbb	[pc, r3]
 80007d6:	5c02      	.short	0x5c02
 80007d8:	605e      	.short	0x605e
 80007da:	230c      	movs	r3, #12
 80007dc:	6063      	str	r3, [r4, #4]
 80007de:	6862      	ldr	r2, [r4, #4]
 80007e0:	6828      	ldr	r0, [r5, #0]
 80007e2:	6823      	ldr	r3, [r4, #0]
 80007e4:	0991      	lsrs	r1, r2, #6
 80007e6:	f001 010c 	and.w	r1, r1, #12
 80007ea:	f100 0730 	add.w	r7, r0, #48	; 0x30
 80007ee:	f002 021f 	and.w	r2, r2, #31
 80007f2:	59ce      	ldr	r6, [r1, r7]
 80007f4:	f04f 0c1f 	mov.w	ip, #31
 80007f8:	f3c3 6384 	ubfx	r3, r3, #26, #5
 80007fc:	4093      	lsls	r3, r2
 80007fe:	fa0c f202 	lsl.w	r2, ip, r2
 8000802:	ea26 0202 	bic.w	r2, r6, r2
 8000806:	4313      	orrs	r3, r2
 8000808:	51cb      	str	r3, [r1, r7]
 800080a:	f7ff fea4 	bl	8000556 <LL_ADC_REG_IsConversionOngoing>
 800080e:	682b      	ldr	r3, [r5, #0]
 8000810:	689a      	ldr	r2, [r3, #8]
 8000812:	0716      	lsls	r6, r2, #28
 8000814:	f140 8144 	bpl.w	8000aa0 <HAL_ADC_ConfigChannel+0x300>
 8000818:	6828      	ldr	r0, [r5, #0]
 800081a:	6883      	ldr	r3, [r0, #8]
 800081c:	07d9      	lsls	r1, r3, #31
 800081e:	f100 80c4 	bmi.w	80009aa <HAL_ADC_ConfigChannel+0x20a>
 8000822:	68e6      	ldr	r6, [r4, #12]
 8000824:	6823      	ldr	r3, [r4, #0]
 8000826:	4ab9      	ldr	r2, [pc, #740]	; (8000b0c <HAL_ADC_ConfigChannel+0x36c>)
 8000828:	f8d0 10b0 	ldr.w	r1, [r0, #176]	; 0xb0
 800082c:	f006 0c18 	and.w	ip, r6, #24
 8000830:	f3c3 0712 	ubfx	r7, r3, #0, #19
 8000834:	fa22 f20c 	lsr.w	r2, r2, ip
 8000838:	401a      	ands	r2, r3
 800083a:	ea21 0107 	bic.w	r1, r1, r7
 800083e:	430a      	orrs	r2, r1
 8000840:	f8c0 20b0 	str.w	r2, [r0, #176]	; 0xb0
 8000844:	4ab2      	ldr	r2, [pc, #712]	; (8000b10 <HAL_ADC_ConfigChannel+0x370>)
 8000846:	4296      	cmp	r6, r2
 8000848:	f040 80af 	bne.w	80009aa <HAL_ADC_ConfigChannel+0x20a>
 800084c:	2f00      	cmp	r7, #0
 800084e:	f040 8085 	bne.w	800095c <HAL_ADC_ConfigChannel+0x1bc>
 8000852:	0e9a      	lsrs	r2, r3, #26
 8000854:	3201      	adds	r2, #1
 8000856:	f002 061f 	and.w	r6, r2, #31
 800085a:	0692      	lsls	r2, r2, #26
 800085c:	f002 41f8 	and.w	r1, r2, #2080374784	; 0x7c000000
 8000860:	2e09      	cmp	r6, #9
 8000862:	f04f 0201 	mov.w	r2, #1
 8000866:	fa02 f206 	lsl.w	r2, r2, r6
 800086a:	f240 8091 	bls.w	8000990 <HAL_ADC_ConfigChannel+0x1f0>
 800086e:	430a      	orrs	r2, r1
 8000870:	2f00      	cmp	r7, #0
 8000872:	f040 80bb 	bne.w	80009ec <HAL_ADC_ConfigChannel+0x24c>
 8000876:	0e9b      	lsrs	r3, r3, #26
 8000878:	3301      	adds	r3, #1
 800087a:	f003 031f 	and.w	r3, r3, #31
 800087e:	eb03 0143 	add.w	r1, r3, r3, lsl #1
 8000882:	391e      	subs	r1, #30
 8000884:	0509      	lsls	r1, r1, #20
 8000886:	f041 7100 	orr.w	r1, r1, #33554432	; 0x2000000
 800088a:	4311      	orrs	r1, r2
 800088c:	e08a      	b.n	80009a4 <HAL_ADC_ConfigChannel+0x204>
 800088e:	2312      	movs	r3, #18
 8000890:	e7a4      	b.n	80007dc <HAL_ADC_ConfigChannel+0x3c>
 8000892:	2318      	movs	r3, #24
 8000894:	e7a2      	b.n	80007dc <HAL_ADC_ConfigChannel+0x3c>
 8000896:	f44f 7380 	mov.w	r3, #256	; 0x100
 800089a:	e79f      	b.n	80007dc <HAL_ADC_ConfigChannel+0x3c>
 800089c:	2306      	movs	r3, #6
 800089e:	e79d      	b.n	80007dc <HAL_ADC_ConfigChannel+0x3c>
 80008a0:	6e19      	ldr	r1, [r3, #96]	; 0x60
 80008a2:	6e19      	ldr	r1, [r3, #96]	; 0x60
 80008a4:	f3c2 0612 	ubfx	r6, r2, #0, #19
 80008a8:	f3c1 6184 	ubfx	r1, r1, #26, #5
 80008ac:	2e00      	cmp	r6, #0
 80008ae:	d13a      	bne.n	8000926 <HAL_ADC_ConfigChannel+0x186>
 80008b0:	f3c2 6284 	ubfx	r2, r2, #26, #5
 80008b4:	4291      	cmp	r1, r2
 80008b6:	bf02      	ittt	eq
 80008b8:	6e1a      	ldreq	r2, [r3, #96]	; 0x60
 80008ba:	f022 4200 	biceq.w	r2, r2, #2147483648	; 0x80000000
 80008be:	661a      	streq	r2, [r3, #96]	; 0x60
 80008c0:	6826      	ldr	r6, [r4, #0]
 80008c2:	6e5a      	ldr	r2, [r3, #100]	; 0x64
 80008c4:	6e5a      	ldr	r2, [r3, #100]	; 0x64
 80008c6:	f3c6 0712 	ubfx	r7, r6, #0, #19
 80008ca:	f3c2 6284 	ubfx	r2, r2, #26, #5
 80008ce:	f100 010c 	add.w	r1, r0, #12
 80008d2:	bb6f      	cbnz	r7, 8000930 <HAL_ADC_ConfigChannel+0x190>
 80008d4:	f3c6 6784 	ubfx	r7, r6, #26, #5
 80008d8:	42ba      	cmp	r2, r7
 80008da:	f040 8104 	bne.w	8000ae6 <HAL_ADC_ConfigChannel+0x346>
 80008de:	6e5a      	ldr	r2, [r3, #100]	; 0x64
 80008e0:	f022 4200 	bic.w	r2, r2, #2147483648	; 0x80000000
 80008e4:	665a      	str	r2, [r3, #100]	; 0x64
 80008e6:	6826      	ldr	r6, [r4, #0]
 80008e8:	6e9a      	ldr	r2, [r3, #104]	; 0x68
 80008ea:	6e9a      	ldr	r2, [r3, #104]	; 0x68
 80008ec:	f3c6 0712 	ubfx	r7, r6, #0, #19
 80008f0:	f3c2 6284 	ubfx	r2, r2, #26, #5
 80008f4:	bb37      	cbnz	r7, 8000944 <HAL_ADC_ConfigChannel+0x1a4>
 80008f6:	f3c6 6684 	ubfx	r6, r6, #26, #5
 80008fa:	42b2      	cmp	r2, r6
 80008fc:	f040 80f8 	bne.w	8000af0 <HAL_ADC_ConfigChannel+0x350>
 8000900:	6e9a      	ldr	r2, [r3, #104]	; 0x68
 8000902:	f022 4200 	bic.w	r2, r2, #2147483648	; 0x80000000
 8000906:	669a      	str	r2, [r3, #104]	; 0x68
 8000908:	68c3      	ldr	r3, [r0, #12]
 800090a:	6823      	ldr	r3, [r4, #0]
 800090c:	68c2      	ldr	r2, [r0, #12]
 800090e:	f3c3 0012 	ubfx	r0, r3, #0, #19
 8000912:	f3c2 6284 	ubfx	r2, r2, #26, #5
 8000916:	2800      	cmp	r0, #0
 8000918:	f000 80ef 	beq.w	8000afa <HAL_ADC_ConfigChannel+0x35a>
 800091c:	fa93 f3a3 	rbit	r3, r3
 8000920:	fab3 f383 	clz	r3, r3
 8000924:	e0eb      	b.n	8000afe <HAL_ADC_ConfigChannel+0x35e>
 8000926:	fa92 f2a2 	rbit	r2, r2
 800092a:	fab2 f282 	clz	r2, r2
 800092e:	e7c1      	b.n	80008b4 <HAL_ADC_ConfigChannel+0x114>
 8000930:	fa96 f7a6 	rbit	r7, r6
 8000934:	fab7 f787 	clz	r7, r7
 8000938:	42ba      	cmp	r2, r7
 800093a:	d0d0      	beq.n	80008de <HAL_ADC_ConfigChannel+0x13e>
 800093c:	6e9a      	ldr	r2, [r3, #104]	; 0x68
 800093e:	6e9a      	ldr	r2, [r3, #104]	; 0x68
 8000940:	f3c2 6284 	ubfx	r2, r2, #26, #5
 8000944:	fa96 f6a6 	rbit	r6, r6
 8000948:	fab6 f686 	clz	r6, r6
 800094c:	4296      	cmp	r6, r2
 800094e:	d0d7      	beq.n	8000900 <HAL_ADC_ConfigChannel+0x160>
 8000950:	68c3      	ldr	r3, [r0, #12]
 8000952:	68c2      	ldr	r2, [r0, #12]
 8000954:	6823      	ldr	r3, [r4, #0]
 8000956:	f3c2 6284 	ubfx	r2, r2, #26, #5
 800095a:	e7df      	b.n	800091c <HAL_ADC_ConfigChannel+0x17c>
 800095c:	fa93 f2a3 	rbit	r2, r3
 8000960:	fab2 f282 	clz	r2, r2
 8000964:	3201      	adds	r2, #1
 8000966:	f002 021f 	and.w	r2, r2, #31
 800096a:	2a09      	cmp	r2, #9
 800096c:	d82c      	bhi.n	80009c8 <HAL_ADC_ConfigChannel+0x228>
 800096e:	fa93 f1a3 	rbit	r1, r3
 8000972:	fab1 f181 	clz	r1, r1
 8000976:	3101      	adds	r1, #1
 8000978:	0689      	lsls	r1, r1, #26
 800097a:	f001 41f8 	and.w	r1, r1, #2080374784	; 0x7c000000
 800097e:	fa93 f2a3 	rbit	r2, r3
 8000982:	fab2 f282 	clz	r2, r2
 8000986:	3201      	adds	r2, #1
 8000988:	f002 061f 	and.w	r6, r2, #31
 800098c:	2201      	movs	r2, #1
 800098e:	40b2      	lsls	r2, r6
 8000990:	4311      	orrs	r1, r2
 8000992:	b9a7      	cbnz	r7, 80009be <HAL_ADC_ConfigChannel+0x21e>
 8000994:	0e9b      	lsrs	r3, r3, #26
 8000996:	3301      	adds	r3, #1
 8000998:	f003 031f 	and.w	r3, r3, #31
 800099c:	eb03 0343 	add.w	r3, r3, r3, lsl #1
 80009a0:	051b      	lsls	r3, r3, #20
 80009a2:	4319      	orrs	r1, r3
 80009a4:	68a2      	ldr	r2, [r4, #8]
 80009a6:	f7ff fdc5 	bl	8000534 <LL_ADC_SetChannelSamplingTime>
 80009aa:	6821      	ldr	r1, [r4, #0]
 80009ac:	4b59      	ldr	r3, [pc, #356]	; (8000b14 <HAL_ADC_ConfigChannel+0x374>)
 80009ae:	4219      	tst	r1, r3
 80009b0:	d128      	bne.n	8000a04 <HAL_ADC_ConfigChannel+0x264>
 80009b2:	2000      	movs	r0, #0
 80009b4:	2300      	movs	r3, #0
 80009b6:	f885 3050 	strb.w	r3, [r5, #80]	; 0x50
 80009ba:	b003      	add	sp, #12
 80009bc:	bdf0      	pop	{r4, r5, r6, r7, pc}
 80009be:	fa93 f3a3 	rbit	r3, r3
 80009c2:	fab3 f383 	clz	r3, r3
 80009c6:	e7e6      	b.n	8000996 <HAL_ADC_ConfigChannel+0x1f6>
 80009c8:	fa93 f1a3 	rbit	r1, r3
 80009cc:	fab1 f181 	clz	r1, r1
 80009d0:	3101      	adds	r1, #1
 80009d2:	0689      	lsls	r1, r1, #26
 80009d4:	f001 41f8 	and.w	r1, r1, #2080374784	; 0x7c000000
 80009d8:	fa93 f2a3 	rbit	r2, r3
 80009dc:	fab2 f282 	clz	r2, r2
 80009e0:	3201      	adds	r2, #1
 80009e2:	f002 061f 	and.w	r6, r2, #31
 80009e6:	2201      	movs	r2, #1
 80009e8:	40b2      	lsls	r2, r6
 80009ea:	e740      	b.n	800086e <HAL_ADC_ConfigChannel+0xce>
 80009ec:	fa93 f3a3 	rbit	r3, r3
 80009f0:	fab3 f383 	clz	r3, r3
 80009f4:	3301      	adds	r3, #1
 80009f6:	f003 031f 	and.w	r3, r3, #31
 80009fa:	eb03 0343 	add.w	r3, r3, r3, lsl #1
 80009fe:	f1a3 011e 	sub.w	r1, r3, #30
 8000a02:	e73f      	b.n	8000884 <HAL_ADC_ConfigChannel+0xe4>
 8000a04:	4b44      	ldr	r3, [pc, #272]	; (8000b18 <HAL_ADC_ConfigChannel+0x378>)
 8000a06:	4a45      	ldr	r2, [pc, #276]	; (8000b1c <HAL_ADC_ConfigChannel+0x37c>)
 8000a08:	6898      	ldr	r0, [r3, #8]
 8000a0a:	4291      	cmp	r1, r2
 8000a0c:	f000 74e0 	and.w	r4, r0, #29360128	; 0x1c00000
 8000a10:	d11a      	bne.n	8000a48 <HAL_ADC_ConfigChannel+0x2a8>
 8000a12:	0202      	lsls	r2, r0, #8
 8000a14:	d4cd      	bmi.n	80009b2 <HAL_ADC_ConfigChannel+0x212>
 8000a16:	6829      	ldr	r1, [r5, #0]
 8000a18:	4a41      	ldr	r2, [pc, #260]	; (8000b20 <HAL_ADC_ConfigChannel+0x380>)
 8000a1a:	4291      	cmp	r1, r2
 8000a1c:	d1c9      	bne.n	80009b2 <HAL_ADC_ConfigChannel+0x212>
 8000a1e:	689a      	ldr	r2, [r3, #8]
 8000a20:	f022 72e0 	bic.w	r2, r2, #29360128	; 0x1c00000
 8000a24:	4322      	orrs	r2, r4
 8000a26:	f442 0200 	orr.w	r2, r2, #8388608	; 0x800000
 8000a2a:	609a      	str	r2, [r3, #8]
 8000a2c:	4b3d      	ldr	r3, [pc, #244]	; (8000b24 <HAL_ADC_ConfigChannel+0x384>)
 8000a2e:	4a3e      	ldr	r2, [pc, #248]	; (8000b28 <HAL_ADC_ConfigChannel+0x388>)
 8000a30:	681b      	ldr	r3, [r3, #0]
 8000a32:	fbb3 f2f2 	udiv	r2, r3, r2
 8000a36:	230c      	movs	r3, #12
 8000a38:	4353      	muls	r3, r2
 8000a3a:	9301      	str	r3, [sp, #4]
 8000a3c:	9b01      	ldr	r3, [sp, #4]
 8000a3e:	2b00      	cmp	r3, #0
 8000a40:	d0b7      	beq.n	80009b2 <HAL_ADC_ConfigChannel+0x212>
 8000a42:	9b01      	ldr	r3, [sp, #4]
 8000a44:	3b01      	subs	r3, #1
 8000a46:	e7f8      	b.n	8000a3a <HAL_ADC_ConfigChannel+0x29a>
 8000a48:	4a38      	ldr	r2, [pc, #224]	; (8000b2c <HAL_ADC_ConfigChannel+0x38c>)
 8000a4a:	4291      	cmp	r1, r2
 8000a4c:	d10f      	bne.n	8000a6e <HAL_ADC_ConfigChannel+0x2ce>
 8000a4e:	f010 7080 	ands.w	r0, r0, #16777216	; 0x1000000
 8000a52:	d1ae      	bne.n	80009b2 <HAL_ADC_ConfigChannel+0x212>
 8000a54:	6829      	ldr	r1, [r5, #0]
 8000a56:	f1a2 42f7 	sub.w	r2, r2, #2071986176	; 0x7b800000
 8000a5a:	4291      	cmp	r1, r2
 8000a5c:	d1a9      	bne.n	80009b2 <HAL_ADC_ConfigChannel+0x212>
 8000a5e:	689a      	ldr	r2, [r3, #8]
 8000a60:	f022 72e0 	bic.w	r2, r2, #29360128	; 0x1c00000
 8000a64:	4322      	orrs	r2, r4
 8000a66:	f042 7280 	orr.w	r2, r2, #16777216	; 0x1000000
 8000a6a:	609a      	str	r2, [r3, #8]
 8000a6c:	e7a2      	b.n	80009b4 <HAL_ADC_ConfigChannel+0x214>
 8000a6e:	4a30      	ldr	r2, [pc, #192]	; (8000b30 <HAL_ADC_ConfigChannel+0x390>)
 8000a70:	4291      	cmp	r1, r2
 8000a72:	d19e      	bne.n	80009b2 <HAL_ADC_ConfigChannel+0x212>
 8000a74:	f410 0080 	ands.w	r0, r0, #4194304	; 0x400000
 8000a78:	d19b      	bne.n	80009b2 <HAL_ADC_ConfigChannel+0x212>
 8000a7a:	6829      	ldr	r1, [r5, #0]
 8000a7c:	4a28      	ldr	r2, [pc, #160]	; (8000b20 <HAL_ADC_ConfigChannel+0x380>)
 8000a7e:	4291      	cmp	r1, r2
 8000a80:	d197      	bne.n	80009b2 <HAL_ADC_ConfigChannel+0x212>
 8000a82:	689a      	ldr	r2, [r3, #8]
 8000a84:	f022 72e0 	bic.w	r2, r2, #29360128	; 0x1c00000
 8000a88:	4322      	orrs	r2, r4
 8000a8a:	f442 0280 	orr.w	r2, r2, #4194304	; 0x400000
 8000a8e:	e7ec      	b.n	8000a6a <HAL_ADC_ConfigChannel+0x2ca>
 8000a90:	6d6a      	ldr	r2, [r5, #84]	; 0x54
 8000a92:	f042 0220 	orr.w	r2, r2, #32
 8000a96:	656a      	str	r2, [r5, #84]	; 0x54
 8000a98:	4618      	mov	r0, r3
 8000a9a:	e78b      	b.n	80009b4 <HAL_ADC_ConfigChannel+0x214>
 8000a9c:	2002      	movs	r0, #2
 8000a9e:	e78c      	b.n	80009ba <HAL_ADC_ConfigChannel+0x21a>
 8000aa0:	2800      	cmp	r0, #0
 8000aa2:	f47f aeb9 	bne.w	8000818 <HAL_ADC_ConfigChannel+0x78>
 8000aa6:	4618      	mov	r0, r3
 8000aa8:	68a2      	ldr	r2, [r4, #8]
 8000aaa:	6821      	ldr	r1, [r4, #0]
 8000aac:	f7ff fd42 	bl	8000534 <LL_ADC_SetChannelSamplingTime>
 8000ab0:	6926      	ldr	r6, [r4, #16]
 8000ab2:	682b      	ldr	r3, [r5, #0]
 8000ab4:	6822      	ldr	r2, [r4, #0]
 8000ab6:	68d9      	ldr	r1, [r3, #12]
 8000ab8:	2e04      	cmp	r6, #4
 8000aba:	f103 0060 	add.w	r0, r3, #96	; 0x60
 8000abe:	f43f aeef 	beq.w	80008a0 <HAL_ADC_ConfigChannel+0x100>
 8000ac2:	f3c1 03c1 	ubfx	r3, r1, #3, #2
 8000ac6:	0059      	lsls	r1, r3, #1
 8000ac8:	6963      	ldr	r3, [r4, #20]
 8000aca:	f850 7026 	ldr.w	r7, [r0, r6, lsl #2]
 8000ace:	f002 42f8 	and.w	r2, r2, #2080374784	; 0x7c000000
 8000ad2:	f042 4200 	orr.w	r2, r2, #2147483648	; 0x80000000
 8000ad6:	408b      	lsls	r3, r1
 8000ad8:	4313      	orrs	r3, r2
 8000ada:	4a16      	ldr	r2, [pc, #88]	; (8000b34 <HAL_ADC_ConfigChannel+0x394>)
 8000adc:	403a      	ands	r2, r7
 8000ade:	4313      	orrs	r3, r2
 8000ae0:	f840 3026 	str.w	r3, [r0, r6, lsl #2]
 8000ae4:	e698      	b.n	8000818 <HAL_ADC_ConfigChannel+0x78>
 8000ae6:	6e9a      	ldr	r2, [r3, #104]	; 0x68
 8000ae8:	6e9a      	ldr	r2, [r3, #104]	; 0x68
 8000aea:	f3c2 6284 	ubfx	r2, r2, #26, #5
 8000aee:	e702      	b.n	80008f6 <HAL_ADC_ConfigChannel+0x156>
 8000af0:	68c3      	ldr	r3, [r0, #12]
 8000af2:	68c2      	ldr	r2, [r0, #12]
 8000af4:	6823      	ldr	r3, [r4, #0]
 8000af6:	f3c2 6284 	ubfx	r2, r2, #26, #5
 8000afa:	f3c3 6384 	ubfx	r3, r3, #26, #5
 8000afe:	4293      	cmp	r3, r2
 8000b00:	bf02      	ittt	eq
 8000b02:	680b      	ldreq	r3, [r1, #0]
 8000b04:	f023 4300 	biceq.w	r3, r3, #2147483648	; 0x80000000
 8000b08:	600b      	streq	r3, [r1, #0]
 8000b0a:	e685      	b.n	8000818 <HAL_ADC_ConfigChannel+0x78>
 8000b0c:	0007ffff 	.word	0x0007ffff
 8000b10:	407f0000 	.word	0x407f0000
 8000b14:	80080000 	.word	0x80080000
 8000b18:	50040300 	.word	0x50040300
 8000b1c:	c7520000 	.word	0xc7520000
 8000b20:	50040000 	.word	0x50040000
 8000b24:	20000000 	.word	0x20000000
 8000b28:	00030d40 	.word	0x00030d40
 8000b2c:	cb840000 	.word	0xcb840000
 8000b30:	80000001 	.word	0x80000001
 8000b34:	03fff000 	.word	0x03fff000

08000b38 <HAL_ADC_GetState>:
 8000b38:	6d40      	ldr	r0, [r0, #84]	; 0x54
 8000b3a:	4770      	bx	lr

08000b3c <ADC_ConversionStop>:
 8000b3c:	b570      	push	{r4, r5, r6, lr}
 8000b3e:	4604      	mov	r4, r0
 8000b40:	6800      	ldr	r0, [r0, #0]
 8000b42:	f7ff fd08 	bl	8000556 <LL_ADC_REG_IsConversionOngoing>
 8000b46:	6823      	ldr	r3, [r4, #0]
 8000b48:	689a      	ldr	r2, [r3, #8]
 8000b4a:	0716      	lsls	r6, r2, #28
 8000b4c:	d556      	bpl.n	8000bfc <ADC_ConversionStop+0xc0>
 8000b4e:	68da      	ldr	r2, [r3, #12]
 8000b50:	0190      	lsls	r0, r2, #6
 8000b52:	d52b      	bpl.n	8000bac <ADC_ConversionStop+0x70>
 8000b54:	8b20      	ldrh	r0, [r4, #24]
 8000b56:	f240 1201 	movw	r2, #257	; 0x101
 8000b5a:	4290      	cmp	r0, r2
 8000b5c:	d126      	bne.n	8000bac <ADC_ConversionStop+0x70>
 8000b5e:	4a29      	ldr	r2, [pc, #164]	; (8000c04 <ADC_ConversionStop+0xc8>)
 8000b60:	6819      	ldr	r1, [r3, #0]
 8000b62:	0649      	lsls	r1, r1, #25
 8000b64:	d516      	bpl.n	8000b94 <ADC_ConversionStop+0x58>
 8000b66:	2240      	movs	r2, #64	; 0x40
 8000b68:	601a      	str	r2, [r3, #0]
 8000b6a:	2101      	movs	r1, #1
 8000b6c:	4618      	mov	r0, r3
 8000b6e:	f7ff fcf2 	bl	8000556 <LL_ADC_REG_IsConversionOngoing>
 8000b72:	b158      	cbz	r0, 8000b8c <ADC_ConversionStop+0x50>
 8000b74:	6822      	ldr	r2, [r4, #0]
 8000b76:	6893      	ldr	r3, [r2, #8]
 8000b78:	079e      	lsls	r6, r3, #30
 8000b7a:	d407      	bmi.n	8000b8c <ADC_ConversionStop+0x50>
 8000b7c:	6893      	ldr	r3, [r2, #8]
 8000b7e:	f023 4300 	bic.w	r3, r3, #2147483648	; 0x80000000
 8000b82:	f023 033f 	bic.w	r3, r3, #63	; 0x3f
 8000b86:	f043 0310 	orr.w	r3, r3, #16
 8000b8a:	6093      	str	r3, [r2, #8]
 8000b8c:	2901      	cmp	r1, #1
 8000b8e:	d10f      	bne.n	8000bb0 <ADC_ConversionStop+0x74>
 8000b90:	2504      	movs	r5, #4
 8000b92:	e022      	b.n	8000bda <ADC_ConversionStop+0x9e>
 8000b94:	3a01      	subs	r2, #1
 8000b96:	d1e3      	bne.n	8000b60 <ADC_ConversionStop+0x24>
 8000b98:	6d63      	ldr	r3, [r4, #84]	; 0x54
 8000b9a:	f043 0310 	orr.w	r3, r3, #16
 8000b9e:	6563      	str	r3, [r4, #84]	; 0x54
 8000ba0:	6da3      	ldr	r3, [r4, #88]	; 0x58
 8000ba2:	f043 0301 	orr.w	r3, r3, #1
 8000ba6:	65a3      	str	r3, [r4, #88]	; 0x58
 8000ba8:	2001      	movs	r0, #1
 8000baa:	bd70      	pop	{r4, r5, r6, pc}
 8000bac:	2902      	cmp	r1, #2
 8000bae:	d1dd      	bne.n	8000b6c <ADC_ConversionStop+0x30>
 8000bb0:	6822      	ldr	r2, [r4, #0]
 8000bb2:	6893      	ldr	r3, [r2, #8]
 8000bb4:	0718      	lsls	r0, r3, #28
 8000bb6:	d50a      	bpl.n	8000bce <ADC_ConversionStop+0x92>
 8000bb8:	6893      	ldr	r3, [r2, #8]
 8000bba:	079b      	lsls	r3, r3, #30
 8000bbc:	d407      	bmi.n	8000bce <ADC_ConversionStop+0x92>
 8000bbe:	6893      	ldr	r3, [r2, #8]
 8000bc0:	f023 4300 	bic.w	r3, r3, #2147483648	; 0x80000000
 8000bc4:	f023 033f 	bic.w	r3, r3, #63	; 0x3f
 8000bc8:	f043 0320 	orr.w	r3, r3, #32
 8000bcc:	6093      	str	r3, [r2, #8]
 8000bce:	2902      	cmp	r1, #2
 8000bd0:	d00c      	beq.n	8000bec <ADC_ConversionStop+0xb0>
 8000bd2:	2903      	cmp	r1, #3
 8000bd4:	bf0c      	ite	eq
 8000bd6:	250c      	moveq	r5, #12
 8000bd8:	2504      	movne	r5, #4
 8000bda:	f7ff fc79 	bl	80004d0 <HAL_GetTick>
 8000bde:	4606      	mov	r6, r0
 8000be0:	6823      	ldr	r3, [r4, #0]
 8000be2:	689b      	ldr	r3, [r3, #8]
 8000be4:	422b      	tst	r3, r5
 8000be6:	d103      	bne.n	8000bf0 <ADC_ConversionStop+0xb4>
 8000be8:	2000      	movs	r0, #0
 8000bea:	e7de      	b.n	8000baa <ADC_ConversionStop+0x6e>
 8000bec:	2508      	movs	r5, #8
 8000bee:	e7f4      	b.n	8000bda <ADC_ConversionStop+0x9e>
 8000bf0:	f7ff fc6e 	bl	80004d0 <HAL_GetTick>
 8000bf4:	1b80      	subs	r0, r0, r6
 8000bf6:	2805      	cmp	r0, #5
 8000bf8:	d9f2      	bls.n	8000be0 <ADC_ConversionStop+0xa4>
 8000bfa:	e7cd      	b.n	8000b98 <ADC_ConversionStop+0x5c>
 8000bfc:	2800      	cmp	r0, #0
 8000bfe:	d1a6      	bne.n	8000b4e <ADC_ConversionStop+0x12>
 8000c00:	e7f2      	b.n	8000be8 <ADC_ConversionStop+0xac>
 8000c02:	bf00      	nop
 8000c04:	a3400001 	.word	0xa3400001

08000c08 <ADC_Enable>:
 8000c08:	6802      	ldr	r2, [r0, #0]
 8000c0a:	6893      	ldr	r3, [r2, #8]
 8000c0c:	b570      	push	{r4, r5, r6, lr}
 8000c0e:	4604      	mov	r4, r0
 8000c10:	07d8      	lsls	r0, r3, #31
 8000c12:	d501      	bpl.n	8000c18 <ADC_Enable+0x10>
 8000c14:	2000      	movs	r0, #0
 8000c16:	bd70      	pop	{r4, r5, r6, pc}
 8000c18:	6891      	ldr	r1, [r2, #8]
 8000c1a:	4b14      	ldr	r3, [pc, #80]	; (8000c6c <ADC_Enable+0x64>)
 8000c1c:	4219      	tst	r1, r3
 8000c1e:	d009      	beq.n	8000c34 <ADC_Enable+0x2c>
 8000c20:	6d63      	ldr	r3, [r4, #84]	; 0x54
 8000c22:	f043 0310 	orr.w	r3, r3, #16
 8000c26:	6563      	str	r3, [r4, #84]	; 0x54
 8000c28:	6da3      	ldr	r3, [r4, #88]	; 0x58
 8000c2a:	f043 0301 	orr.w	r3, r3, #1
 8000c2e:	65a3      	str	r3, [r4, #88]	; 0x58
 8000c30:	2001      	movs	r0, #1
 8000c32:	e7f0      	b.n	8000c16 <ADC_Enable+0xe>
 8000c34:	6893      	ldr	r3, [r2, #8]
 8000c36:	4d0e      	ldr	r5, [pc, #56]	; (8000c70 <ADC_Enable+0x68>)
 8000c38:	402b      	ands	r3, r5
 8000c3a:	f043 0301 	orr.w	r3, r3, #1
 8000c3e:	6093      	str	r3, [r2, #8]
 8000c40:	f7ff fc46 	bl	80004d0 <HAL_GetTick>
 8000c44:	4606      	mov	r6, r0
 8000c46:	6822      	ldr	r2, [r4, #0]
 8000c48:	6813      	ldr	r3, [r2, #0]
 8000c4a:	07db      	lsls	r3, r3, #31
 8000c4c:	d4e2      	bmi.n	8000c14 <ADC_Enable+0xc>
 8000c4e:	6893      	ldr	r3, [r2, #8]
 8000c50:	07d9      	lsls	r1, r3, #31
 8000c52:	bf5f      	itttt	pl
 8000c54:	6893      	ldrpl	r3, [r2, #8]
 8000c56:	402b      	andpl	r3, r5
 8000c58:	f043 0301 	orrpl.w	r3, r3, #1
 8000c5c:	6093      	strpl	r3, [r2, #8]
 8000c5e:	f7ff fc37 	bl	80004d0 <HAL_GetTick>
 8000c62:	1b80      	subs	r0, r0, r6
 8000c64:	2802      	cmp	r0, #2
 8000c66:	d9ee      	bls.n	8000c46 <ADC_Enable+0x3e>
 8000c68:	e7da      	b.n	8000c20 <ADC_Enable+0x18>
 8000c6a:	bf00      	nop
 8000c6c:	8000003f 	.word	0x8000003f
 8000c70:	7fffffc0 	.word	0x7fffffc0

08000c74 <HAL_ADC_Start>:
 8000c74:	b538      	push	{r3, r4, r5, lr}
 8000c76:	4604      	mov	r4, r0
 8000c78:	6800      	ldr	r0, [r0, #0]
 8000c7a:	f7ff fc6c 	bl	8000556 <LL_ADC_REG_IsConversionOngoing>
 8000c7e:	4605      	mov	r5, r0
 8000c80:	2800      	cmp	r0, #0
 8000c82:	d136      	bne.n	8000cf2 <HAL_ADC_Start+0x7e>
 8000c84:	f894 3050 	ldrb.w	r3, [r4, #80]	; 0x50
 8000c88:	2b01      	cmp	r3, #1
 8000c8a:	d032      	beq.n	8000cf2 <HAL_ADC_Start+0x7e>
 8000c8c:	2301      	movs	r3, #1
 8000c8e:	f884 3050 	strb.w	r3, [r4, #80]	; 0x50
 8000c92:	4620      	mov	r0, r4
 8000c94:	f7ff ffb8 	bl	8000c08 <ADC_Enable>
 8000c98:	bb40      	cbnz	r0, 8000cec <HAL_ADC_Start+0x78>
 8000c9a:	6d63      	ldr	r3, [r4, #84]	; 0x54
 8000c9c:	f423 6370 	bic.w	r3, r3, #3840	; 0xf00
 8000ca0:	f023 0301 	bic.w	r3, r3, #1
 8000ca4:	f443 7380 	orr.w	r3, r3, #256	; 0x100
 8000ca8:	6563      	str	r3, [r4, #84]	; 0x54
 8000caa:	6d63      	ldr	r3, [r4, #84]	; 0x54
 8000cac:	04da      	lsls	r2, r3, #19
 8000cae:	bf48      	it	mi
 8000cb0:	6da3      	ldrmi	r3, [r4, #88]	; 0x58
 8000cb2:	6822      	ldr	r2, [r4, #0]
 8000cb4:	bf52      	itee	pl
 8000cb6:	65a0      	strpl	r0, [r4, #88]	; 0x58
 8000cb8:	f023 0306 	bicmi.w	r3, r3, #6
 8000cbc:	65a3      	strmi	r3, [r4, #88]	; 0x58
 8000cbe:	231c      	movs	r3, #28
 8000cc0:	6013      	str	r3, [r2, #0]
 8000cc2:	2300      	movs	r3, #0
 8000cc4:	f884 3050 	strb.w	r3, [r4, #80]	; 0x50
 8000cc8:	68d3      	ldr	r3, [r2, #12]
 8000cca:	019b      	lsls	r3, r3, #6
 8000ccc:	bf41      	itttt	mi
 8000cce:	6d63      	ldrmi	r3, [r4, #84]	; 0x54
 8000cd0:	f423 5340 	bicmi.w	r3, r3, #12288	; 0x3000
 8000cd4:	f443 5380 	orrmi.w	r3, r3, #4096	; 0x1000
 8000cd8:	6563      	strmi	r3, [r4, #84]	; 0x54
 8000cda:	6893      	ldr	r3, [r2, #8]
 8000cdc:	f023 4300 	bic.w	r3, r3, #2147483648	; 0x80000000
 8000ce0:	f023 033f 	bic.w	r3, r3, #63	; 0x3f
 8000ce4:	f043 0304 	orr.w	r3, r3, #4
 8000ce8:	6093      	str	r3, [r2, #8]
 8000cea:	bd38      	pop	{r3, r4, r5, pc}
 8000cec:	f884 5050 	strb.w	r5, [r4, #80]	; 0x50
 8000cf0:	e7fb      	b.n	8000cea <HAL_ADC_Start+0x76>
 8000cf2:	2002      	movs	r0, #2
 8000cf4:	e7f9      	b.n	8000cea <HAL_ADC_Start+0x76>

08000cf6 <ADC_Disable>:
 8000cf6:	6802      	ldr	r2, [r0, #0]
 8000cf8:	b538      	push	{r3, r4, r5, lr}
 8000cfa:	6893      	ldr	r3, [r2, #8]
 8000cfc:	6891      	ldr	r1, [r2, #8]
 8000cfe:	07c9      	lsls	r1, r1, #31
 8000d00:	4604      	mov	r4, r0
 8000d02:	f003 0302 	and.w	r3, r3, #2
 8000d06:	d401      	bmi.n	8000d0c <ADC_Disable+0x16>
 8000d08:	2000      	movs	r0, #0
 8000d0a:	bd38      	pop	{r3, r4, r5, pc}
 8000d0c:	2b00      	cmp	r3, #0
 8000d0e:	d1fb      	bne.n	8000d08 <ADC_Disable+0x12>
 8000d10:	6893      	ldr	r3, [r2, #8]
 8000d12:	f003 030d 	and.w	r3, r3, #13
 8000d16:	2b01      	cmp	r3, #1
 8000d18:	d115      	bne.n	8000d46 <ADC_Disable+0x50>
 8000d1a:	6893      	ldr	r3, [r2, #8]
 8000d1c:	f023 4300 	bic.w	r3, r3, #2147483648	; 0x80000000
 8000d20:	f023 033f 	bic.w	r3, r3, #63	; 0x3f
 8000d24:	f043 0302 	orr.w	r3, r3, #2
 8000d28:	6093      	str	r3, [r2, #8]
 8000d2a:	2303      	movs	r3, #3
 8000d2c:	6013      	str	r3, [r2, #0]
 8000d2e:	f7ff fbcf 	bl	80004d0 <HAL_GetTick>
 8000d32:	4605      	mov	r5, r0
 8000d34:	6823      	ldr	r3, [r4, #0]
 8000d36:	689b      	ldr	r3, [r3, #8]
 8000d38:	07db      	lsls	r3, r3, #31
 8000d3a:	d5e5      	bpl.n	8000d08 <ADC_Disable+0x12>
 8000d3c:	f7ff fbc8 	bl	80004d0 <HAL_GetTick>
 8000d40:	1b40      	subs	r0, r0, r5
 8000d42:	2802      	cmp	r0, #2
 8000d44:	d9f6      	bls.n	8000d34 <ADC_Disable+0x3e>
 8000d46:	6d63      	ldr	r3, [r4, #84]	; 0x54
 8000d48:	f043 0310 	orr.w	r3, r3, #16
 8000d4c:	6563      	str	r3, [r4, #84]	; 0x54
 8000d4e:	6da3      	ldr	r3, [r4, #88]	; 0x58
 8000d50:	f043 0301 	orr.w	r3, r3, #1
 8000d54:	65a3      	str	r3, [r4, #88]	; 0x58
 8000d56:	2001      	movs	r0, #1
 8000d58:	e7d7      	b.n	8000d0a <ADC_Disable+0x14>

08000d5a <HAL_ADC_Stop>:
 8000d5a:	f890 3050 	ldrb.w	r3, [r0, #80]	; 0x50
 8000d5e:	2b01      	cmp	r3, #1
 8000d60:	b510      	push	{r4, lr}
 8000d62:	4604      	mov	r4, r0
 8000d64:	d016      	beq.n	8000d94 <HAL_ADC_Stop+0x3a>
 8000d66:	2301      	movs	r3, #1
 8000d68:	f880 3050 	strb.w	r3, [r0, #80]	; 0x50
 8000d6c:	2103      	movs	r1, #3
 8000d6e:	f7ff fee5 	bl	8000b3c <ADC_ConversionStop>
 8000d72:	b958      	cbnz	r0, 8000d8c <HAL_ADC_Stop+0x32>
 8000d74:	4620      	mov	r0, r4
 8000d76:	f7ff ffbe 	bl	8000cf6 <ADC_Disable>
 8000d7a:	b938      	cbnz	r0, 8000d8c <HAL_ADC_Stop+0x32>
 8000d7c:	6d63      	ldr	r3, [r4, #84]	; 0x54
 8000d7e:	f423 5388 	bic.w	r3, r3, #4352	; 0x1100
 8000d82:	f023 0301 	bic.w	r3, r3, #1
 8000d86:	f043 0301 	orr.w	r3, r3, #1
 8000d8a:	6563      	str	r3, [r4, #84]	; 0x54
 8000d8c:	2300      	movs	r3, #0
 8000d8e:	f884 3050 	strb.w	r3, [r4, #80]	; 0x50
 8000d92:	bd10      	pop	{r4, pc}
 8000d94:	2002      	movs	r0, #2
 8000d96:	e7fc      	b.n	8000d92 <HAL_ADC_Stop+0x38>

08000d98 <LL_ADC_INJ_IsConversionOngoing>:
 8000d98:	6880      	ldr	r0, [r0, #8]
 8000d9a:	f3c0 00c0 	ubfx	r0, r0, #3, #1
 8000d9e:	4770      	bx	lr

08000da0 <HAL_ADCEx_Calibration_Start>:
 8000da0:	b537      	push	{r0, r1, r2, r4, r5, lr}
 8000da2:	2300      	movs	r3, #0
 8000da4:	9301      	str	r3, [sp, #4]
 8000da6:	f890 3050 	ldrb.w	r3, [r0, #80]	; 0x50
 8000daa:	2b01      	cmp	r3, #1
 8000dac:	4604      	mov	r4, r0
 8000dae:	460d      	mov	r5, r1
 8000db0:	d03d      	beq.n	8000e2e <HAL_ADCEx_Calibration_Start+0x8e>
 8000db2:	2301      	movs	r3, #1
 8000db4:	f880 3050 	strb.w	r3, [r0, #80]	; 0x50
 8000db8:	f7ff ff9d 	bl	8000cf6 <ADC_Disable>
 8000dbc:	6d63      	ldr	r3, [r4, #84]	; 0x54
 8000dbe:	2800      	cmp	r0, #0
 8000dc0:	d132      	bne.n	8000e28 <HAL_ADCEx_Calibration_Start+0x88>
 8000dc2:	f423 5388 	bic.w	r3, r3, #4352	; 0x1100
 8000dc6:	f023 0302 	bic.w	r3, r3, #2
 8000dca:	6822      	ldr	r2, [r4, #0]
 8000dcc:	f043 0302 	orr.w	r3, r3, #2
 8000dd0:	6563      	str	r3, [r4, #84]	; 0x54
 8000dd2:	6891      	ldr	r1, [r2, #8]
 8000dd4:	f005 4580 	and.w	r5, r5, #1073741824	; 0x40000000
 8000dd8:	f021 4140 	bic.w	r1, r1, #3221225472	; 0xc0000000
 8000ddc:	f021 013f 	bic.w	r1, r1, #63	; 0x3f
 8000de0:	f045 4500 	orr.w	r5, r5, #2147483648	; 0x80000000
 8000de4:	430d      	orrs	r5, r1
 8000de6:	4913      	ldr	r1, [pc, #76]	; (8000e34 <HAL_ADCEx_Calibration_Start+0x94>)
 8000de8:	6095      	str	r5, [r2, #8]
 8000dea:	6893      	ldr	r3, [r2, #8]
 8000dec:	2b00      	cmp	r3, #0
 8000dee:	da11      	bge.n	8000e14 <HAL_ADCEx_Calibration_Start+0x74>
 8000df0:	9b01      	ldr	r3, [sp, #4]
 8000df2:	3301      	adds	r3, #1
 8000df4:	9301      	str	r3, [sp, #4]
 8000df6:	9b01      	ldr	r3, [sp, #4]
 8000df8:	428b      	cmp	r3, r1
 8000dfa:	d9f6      	bls.n	8000dea <HAL_ADCEx_Calibration_Start+0x4a>
 8000dfc:	6d63      	ldr	r3, [r4, #84]	; 0x54
 8000dfe:	f023 0312 	bic.w	r3, r3, #18
 8000e02:	f043 0310 	orr.w	r3, r3, #16
 8000e06:	6563      	str	r3, [r4, #84]	; 0x54
 8000e08:	2300      	movs	r3, #0
 8000e0a:	f884 3050 	strb.w	r3, [r4, #80]	; 0x50
 8000e0e:	2001      	movs	r0, #1
 8000e10:	b003      	add	sp, #12
 8000e12:	bd30      	pop	{r4, r5, pc}
 8000e14:	6d63      	ldr	r3, [r4, #84]	; 0x54
 8000e16:	f023 0303 	bic.w	r3, r3, #3
 8000e1a:	f043 0301 	orr.w	r3, r3, #1
 8000e1e:	6563      	str	r3, [r4, #84]	; 0x54
 8000e20:	2300      	movs	r3, #0
 8000e22:	f884 3050 	strb.w	r3, [r4, #80]	; 0x50
 8000e26:	e7f3      	b.n	8000e10 <HAL_ADCEx_Calibration_Start+0x70>
 8000e28:	f043 0310 	orr.w	r3, r3, #16
 8000e2c:	e7f7      	b.n	8000e1e <HAL_ADCEx_Calibration_Start+0x7e>
 8000e2e:	2002      	movs	r0, #2
 8000e30:	e7ee      	b.n	8000e10 <HAL_ADCEx_Calibration_Start+0x70>
 8000e32:	bf00      	nop
 8000e34:	000487ff 	.word	0x000487ff

08000e38 <HAL_ADCEx_Calibration_GetValue>:
 8000e38:	6803      	ldr	r3, [r0, #0]
 8000e3a:	f8d3 30b4 	ldr.w	r3, [r3, #180]	; 0xb4
 8000e3e:	f001 107f 	and.w	r0, r1, #8323199	; 0x7f007f
 8000e42:	0b09      	lsrs	r1, r1, #12
 8000e44:	4018      	ands	r0, r3
 8000e46:	f001 0110 	and.w	r1, r1, #16
 8000e4a:	40c8      	lsrs	r0, r1
 8000e4c:	4770      	bx	lr

08000e4e <HAL_ADCEx_Calibration_SetValue>:
 8000e4e:	b5f8      	push	{r3, r4, r5, r6, r7, lr}
 8000e50:	4603      	mov	r3, r0
 8000e52:	f890 0050 	ldrb.w	r0, [r0, #80]	; 0x50
 8000e56:	2801      	cmp	r0, #1
 8000e58:	d02d      	beq.n	8000eb6 <HAL_ADCEx_Calibration_SetValue+0x68>
 8000e5a:	2001      	movs	r0, #1
 8000e5c:	f883 0050 	strb.w	r0, [r3, #80]	; 0x50
 8000e60:	6818      	ldr	r0, [r3, #0]
 8000e62:	6884      	ldr	r4, [r0, #8]
 8000e64:	f7ff ff98 	bl	8000d98 <LL_ADC_INJ_IsConversionOngoing>
 8000e68:	681d      	ldr	r5, [r3, #0]
 8000e6a:	68ae      	ldr	r6, [r5, #8]
 8000e6c:	07f6      	lsls	r6, r6, #31
 8000e6e:	f004 0404 	and.w	r4, r4, #4
 8000e72:	d516      	bpl.n	8000ea2 <HAL_ADCEx_Calibration_SetValue+0x54>
 8000e74:	b9ac      	cbnz	r4, 8000ea2 <HAL_ADCEx_Calibration_SetValue+0x54>
 8000e76:	b9a0      	cbnz	r0, 8000ea2 <HAL_ADCEx_Calibration_SetValue+0x54>
 8000e78:	0b0c      	lsrs	r4, r1, #12
 8000e7a:	f8d5 60b4 	ldr.w	r6, [r5, #180]	; 0xb4
 8000e7e:	f001 077f 	and.w	r7, r1, #127	; 0x7f
 8000e82:	f004 0410 	and.w	r4, r4, #16
 8000e86:	ea24 0407 	bic.w	r4, r4, r7
 8000e8a:	f001 117f 	and.w	r1, r1, #8323199	; 0x7f007f
 8000e8e:	40a2      	lsls	r2, r4
 8000e90:	ea26 0101 	bic.w	r1, r6, r1
 8000e94:	430a      	orrs	r2, r1
 8000e96:	f8c5 20b4 	str.w	r2, [r5, #180]	; 0xb4
 8000e9a:	2200      	movs	r2, #0
 8000e9c:	f883 2050 	strb.w	r2, [r3, #80]	; 0x50
 8000ea0:	bdf8      	pop	{r3, r4, r5, r6, r7, pc}
 8000ea2:	6d5a      	ldr	r2, [r3, #84]	; 0x54
 8000ea4:	f042 0220 	orr.w	r2, r2, #32
 8000ea8:	655a      	str	r2, [r3, #84]	; 0x54
 8000eaa:	6d9a      	ldr	r2, [r3, #88]	; 0x58
 8000eac:	f042 0201 	orr.w	r2, r2, #1
 8000eb0:	659a      	str	r2, [r3, #88]	; 0x58
 8000eb2:	2001      	movs	r0, #1
 8000eb4:	e7f1      	b.n	8000e9a <HAL_ADCEx_Calibration_SetValue+0x4c>
 8000eb6:	2002      	movs	r0, #2
 8000eb8:	e7f2      	b.n	8000ea0 <HAL_ADCEx_Calibration_SetValue+0x52>

08000eba <HAL_ADCEx_DisableVoltageRegulator>:
 8000eba:	6802      	ldr	r2, [r0, #0]
 8000ebc:	6890      	ldr	r0, [r2, #8]
 8000ebe:	f010 0001 	ands.w	r0, r0, #1
 8000ec2:	bf01      	itttt	eq
 8000ec4:	6893      	ldreq	r3, [r2, #8]
 8000ec6:	f023 4310 	biceq.w	r3, r3, #2415919104	; 0x90000000
 8000eca:	f023 033f 	biceq.w	r3, r3, #63	; 0x3f
 8000ece:	6093      	streq	r3, [r2, #8]
 8000ed0:	bf18      	it	ne
 8000ed2:	2001      	movne	r0, #1
 8000ed4:	4770      	bx	lr
	...

08000ed8 <HAL_NVIC_SetPriorityGrouping>:
 8000ed8:	4a07      	ldr	r2, [pc, #28]	; (8000ef8 <HAL_NVIC_SetPriorityGrouping+0x20>)
 8000eda:	68d3      	ldr	r3, [r2, #12]
 8000edc:	f423 63e0 	bic.w	r3, r3, #1792	; 0x700
 8000ee0:	041b      	lsls	r3, r3, #16
 8000ee2:	0c1b      	lsrs	r3, r3, #16
 8000ee4:	f043 63bf 	orr.w	r3, r3, #100139008	; 0x5f80000
 8000ee8:	0200      	lsls	r0, r0, #8
 8000eea:	f443 3300 	orr.w	r3, r3, #131072	; 0x20000
 8000eee:	f400 60e0 	and.w	r0, r0, #1792	; 0x700
 8000ef2:	4303      	orrs	r3, r0
 8000ef4:	60d3      	str	r3, [r2, #12]
 8000ef6:	4770      	bx	lr
 8000ef8:	e000ed00 	.word	0xe000ed00

08000efc <HAL_NVIC_SetPriority>:
 8000efc:	4b17      	ldr	r3, [pc, #92]	; (8000f5c <HAL_NVIC_SetPriority+0x60>)
 8000efe:	b570      	push	{r4, r5, r6, lr}
 8000f00:	68dc      	ldr	r4, [r3, #12]
 8000f02:	f3c4 2402 	ubfx	r4, r4, #8, #3
 8000f06:	f1c4 0507 	rsb	r5, r4, #7
 8000f0a:	2d04      	cmp	r5, #4
 8000f0c:	f104 0304 	add.w	r3, r4, #4
 8000f10:	bf28      	it	cs
 8000f12:	2504      	movcs	r5, #4
 8000f14:	f04f 36ff 	mov.w	r6, #4294967295	; 0xffffffff
 8000f18:	2b06      	cmp	r3, #6
 8000f1a:	fa06 f305 	lsl.w	r3, r6, r5
 8000f1e:	bf8c      	ite	hi
 8000f20:	3c03      	subhi	r4, #3
 8000f22:	2400      	movls	r4, #0
 8000f24:	ea21 0303 	bic.w	r3, r1, r3
 8000f28:	40a3      	lsls	r3, r4
 8000f2a:	fa06 f404 	lsl.w	r4, r6, r4
 8000f2e:	ea22 0404 	bic.w	r4, r2, r4
 8000f32:	2800      	cmp	r0, #0
 8000f34:	ea43 0304 	orr.w	r3, r3, r4
 8000f38:	bfa8      	it	ge
 8000f3a:	f100 4060 	addge.w	r0, r0, #3758096384	; 0xe0000000
 8000f3e:	ea4f 1303 	mov.w	r3, r3, lsl #4
 8000f42:	bfbc      	itt	lt
 8000f44:	f000 000f 	andlt.w	r0, r0, #15
 8000f48:	4a05      	ldrlt	r2, [pc, #20]	; (8000f60 <HAL_NVIC_SetPriority+0x64>)
 8000f4a:	b2db      	uxtb	r3, r3
 8000f4c:	bfaa      	itet	ge
 8000f4e:	f500 4061 	addge.w	r0, r0, #57600	; 0xe100
 8000f52:	5413      	strblt	r3, [r2, r0]
 8000f54:	f880 3300 	strbge.w	r3, [r0, #768]	; 0x300
 8000f58:	bd70      	pop	{r4, r5, r6, pc}
 8000f5a:	bf00      	nop
 8000f5c:	e000ed00 	.word	0xe000ed00
 8000f60:	e000ed14 	.word	0xe000ed14

08000f64 <HAL_NVIC_EnableIRQ>:
 8000f64:	2800      	cmp	r0, #0
 8000f66:	db08      	blt.n	8000f7a <HAL_NVIC_EnableIRQ+0x16>
 8000f68:	2301      	movs	r3, #1
 8000f6a:	0942      	lsrs	r2, r0, #5
 8000f6c:	f000 001f 	and.w	r0, r0, #31
 8000f70:	fa03 f000 	lsl.w	r0, r3, r0
 8000f74:	4b01      	ldr	r3, [pc, #4]	; (8000f7c <HAL_NVIC_EnableIRQ+0x18>)
 8000f76:	f843 0022 	str.w	r0, [r3, r2, lsl #2]
 8000f7a:	4770      	bx	lr
 8000f7c:	e000e100 	.word	0xe000e100

08000f80 <HAL_SYSTICK_Config>:
 8000f80:	3801      	subs	r0, #1
 8000f82:	f1b0 7f80 	cmp.w	r0, #16777216	; 0x1000000
 8000f86:	d20a      	bcs.n	8000f9e <HAL_SYSTICK_Config+0x1e>
 8000f88:	4b06      	ldr	r3, [pc, #24]	; (8000fa4 <HAL_SYSTICK_Config+0x24>)
 8000f8a:	4a07      	ldr	r2, [pc, #28]	; (8000fa8 <HAL_SYSTICK_Config+0x28>)
 8000f8c:	6058      	str	r0, [r3, #4]
 8000f8e:	21f0      	movs	r1, #240	; 0xf0
 8000f90:	f882 1023 	strb.w	r1, [r2, #35]	; 0x23
 8000f94:	2000      	movs	r0, #0
 8000f96:	2207      	movs	r2, #7
 8000f98:	6098      	str	r0, [r3, #8]
 8000f9a:	601a      	str	r2, [r3, #0]
 8000f9c:	4770      	bx	lr
 8000f9e:	2001      	movs	r0, #1
 8000fa0:	4770      	bx	lr
 8000fa2:	bf00      	nop
 8000fa4:	e000e010 	.word	0xe000e010
 8000fa8:	e000ed00 	.word	0xe000ed00

08000fac <HAL_GPIO_Init>:
 8000fac:	e92d 4ff0 	stmdb	sp!, {r4, r5, r6, r7, r8, r9, sl, fp, lr}
 8000fb0:	b085      	sub	sp, #20
 8000fb2:	680b      	ldr	r3, [r1, #0]
 8000fb4:	f8df e164 	ldr.w	lr, [pc, #356]	; 800111c <HAL_GPIO_Init+0x170>
 8000fb8:	4a56      	ldr	r2, [pc, #344]	; (8001114 <HAL_GPIO_Init+0x168>)
 8000fba:	9301      	str	r3, [sp, #4]
 8000fbc:	f04f 090f 	mov.w	r9, #15
 8000fc0:	2300      	movs	r3, #0
 8000fc2:	9c01      	ldr	r4, [sp, #4]
 8000fc4:	40dc      	lsrs	r4, r3
 8000fc6:	d102      	bne.n	8000fce <HAL_GPIO_Init+0x22>
 8000fc8:	b005      	add	sp, #20
 8000fca:	e8bd 8ff0 	ldmia.w	sp!, {r4, r5, r6, r7, r8, r9, sl, fp, pc}
 8000fce:	2401      	movs	r4, #1
 8000fd0:	fa04 f803 	lsl.w	r8, r4, r3
 8000fd4:	9c01      	ldr	r4, [sp, #4]
 8000fd6:	ea18 0504 	ands.w	r5, r8, r4
 8000fda:	f000 8094 	beq.w	8001106 <HAL_GPIO_Init+0x15a>
 8000fde:	684c      	ldr	r4, [r1, #4]
 8000fe0:	f024 0a10 	bic.w	sl, r4, #16
 8000fe4:	ea4f 0c43 	mov.w	ip, r3, lsl #1
 8000fe8:	2603      	movs	r6, #3
 8000fea:	f10a 37ff 	add.w	r7, sl, #4294967295	; 0xffffffff
 8000fee:	fa06 f60c 	lsl.w	r6, r6, ip
 8000ff2:	2f01      	cmp	r7, #1
 8000ff4:	ea6f 0606 	mvn.w	r6, r6
 8000ff8:	d811      	bhi.n	800101e <HAL_GPIO_Init+0x72>
 8000ffa:	6887      	ldr	r7, [r0, #8]
 8000ffc:	ea07 0b06 	and.w	fp, r7, r6
 8001000:	68cf      	ldr	r7, [r1, #12]
 8001002:	fa07 f70c 	lsl.w	r7, r7, ip
 8001006:	ea47 070b 	orr.w	r7, r7, fp
 800100a:	6087      	str	r7, [r0, #8]
 800100c:	6847      	ldr	r7, [r0, #4]
 800100e:	ea27 0808 	bic.w	r8, r7, r8
 8001012:	f3c4 1700 	ubfx	r7, r4, #4, #1
 8001016:	409f      	lsls	r7, r3
 8001018:	ea47 0708 	orr.w	r7, r7, r8
 800101c:	6047      	str	r7, [r0, #4]
 800101e:	68c7      	ldr	r7, [r0, #12]
 8001020:	ea07 0806 	and.w	r8, r7, r6
 8001024:	688f      	ldr	r7, [r1, #8]
 8001026:	fa07 f70c 	lsl.w	r7, r7, ip
 800102a:	ea47 0708 	orr.w	r7, r7, r8
 800102e:	f1ba 0f02 	cmp.w	sl, #2
 8001032:	60c7      	str	r7, [r0, #12]
 8001034:	d114      	bne.n	8001060 <HAL_GPIO_Init+0xb4>
 8001036:	ea4f 08d3 	mov.w	r8, r3, lsr #3
 800103a:	eb00 0888 	add.w	r8, r0, r8, lsl #2
 800103e:	f003 0a07 	and.w	sl, r3, #7
 8001042:	f8d8 7020 	ldr.w	r7, [r8, #32]
 8001046:	ea4f 0a8a 	mov.w	sl, sl, lsl #2
 800104a:	fa09 fb0a 	lsl.w	fp, r9, sl
 800104e:	ea27 0b0b 	bic.w	fp, r7, fp
 8001052:	690f      	ldr	r7, [r1, #16]
 8001054:	fa07 f70a 	lsl.w	r7, r7, sl
 8001058:	ea47 070b 	orr.w	r7, r7, fp
 800105c:	f8c8 7020 	str.w	r7, [r8, #32]
 8001060:	6807      	ldr	r7, [r0, #0]
 8001062:	403e      	ands	r6, r7
 8001064:	f004 0703 	and.w	r7, r4, #3
 8001068:	fa07 fc0c 	lsl.w	ip, r7, ip
 800106c:	ea4c 0606 	orr.w	r6, ip, r6
 8001070:	6006      	str	r6, [r0, #0]
 8001072:	00e6      	lsls	r6, r4, #3
 8001074:	d547      	bpl.n	8001106 <HAL_GPIO_Init+0x15a>
 8001076:	f8de 6060 	ldr.w	r6, [lr, #96]	; 0x60
 800107a:	f046 0601 	orr.w	r6, r6, #1
 800107e:	f8ce 6060 	str.w	r6, [lr, #96]	; 0x60
 8001082:	f8de 6060 	ldr.w	r6, [lr, #96]	; 0x60
 8001086:	f023 0703 	bic.w	r7, r3, #3
 800108a:	f107 4780 	add.w	r7, r7, #1073741824	; 0x40000000
 800108e:	f006 0601 	and.w	r6, r6, #1
 8001092:	f507 3780 	add.w	r7, r7, #65536	; 0x10000
 8001096:	9603      	str	r6, [sp, #12]
 8001098:	f003 0c03 	and.w	ip, r3, #3
 800109c:	9e03      	ldr	r6, [sp, #12]
 800109e:	68be      	ldr	r6, [r7, #8]
 80010a0:	ea4f 0c8c 	mov.w	ip, ip, lsl #2
 80010a4:	fa09 f80c 	lsl.w	r8, r9, ip
 80010a8:	f1b0 4f90 	cmp.w	r0, #1207959552	; 0x48000000
 80010ac:	ea26 0808 	bic.w	r8, r6, r8
 80010b0:	d02b      	beq.n	800110a <HAL_GPIO_Init+0x15e>
 80010b2:	4e19      	ldr	r6, [pc, #100]	; (8001118 <HAL_GPIO_Init+0x16c>)
 80010b4:	42b0      	cmp	r0, r6
 80010b6:	d02a      	beq.n	800110e <HAL_GPIO_Init+0x162>
 80010b8:	f506 6680 	add.w	r6, r6, #1024	; 0x400
 80010bc:	42b0      	cmp	r0, r6
 80010be:	bf14      	ite	ne
 80010c0:	2607      	movne	r6, #7
 80010c2:	2602      	moveq	r6, #2
 80010c4:	fa06 f60c 	lsl.w	r6, r6, ip
 80010c8:	ea46 0608 	orr.w	r6, r6, r8
 80010cc:	60be      	str	r6, [r7, #8]
 80010ce:	6816      	ldr	r6, [r2, #0]
 80010d0:	43ef      	mvns	r7, r5
 80010d2:	f414 3f80 	tst.w	r4, #65536	; 0x10000
 80010d6:	bf0c      	ite	eq
 80010d8:	403e      	andeq	r6, r7
 80010da:	432e      	orrne	r6, r5
 80010dc:	6016      	str	r6, [r2, #0]
 80010de:	6856      	ldr	r6, [r2, #4]
 80010e0:	f414 3f00 	tst.w	r4, #131072	; 0x20000
 80010e4:	bf0c      	ite	eq
 80010e6:	403e      	andeq	r6, r7
 80010e8:	432e      	orrne	r6, r5
 80010ea:	6056      	str	r6, [r2, #4]
 80010ec:	6896      	ldr	r6, [r2, #8]
 80010ee:	f414 1f80 	tst.w	r4, #1048576	; 0x100000
 80010f2:	bf0c      	ite	eq
 80010f4:	403e      	andeq	r6, r7
 80010f6:	432e      	orrne	r6, r5
 80010f8:	6096      	str	r6, [r2, #8]
 80010fa:	68d6      	ldr	r6, [r2, #12]
 80010fc:	02a4      	lsls	r4, r4, #10
 80010fe:	bf54      	ite	pl
 8001100:	403e      	andpl	r6, r7
 8001102:	432e      	orrmi	r6, r5
 8001104:	60d6      	str	r6, [r2, #12]
 8001106:	3301      	adds	r3, #1
 8001108:	e75b      	b.n	8000fc2 <HAL_GPIO_Init+0x16>
 800110a:	2600      	movs	r6, #0
 800110c:	e7da      	b.n	80010c4 <HAL_GPIO_Init+0x118>
 800110e:	2601      	movs	r6, #1
 8001110:	e7d8      	b.n	80010c4 <HAL_GPIO_Init+0x118>
 8001112:	bf00      	nop
 8001114:	40010400 	.word	0x40010400
 8001118:	48000400 	.word	0x48000400
 800111c:	40021000 	.word	0x40021000

08001120 <HAL_GPIO_ReadPin>:
 8001120:	6903      	ldr	r3, [r0, #16]
 8001122:	4219      	tst	r1, r3
 8001124:	bf14      	ite	ne
 8001126:	2001      	movne	r0, #1
 8001128:	2000      	moveq	r0, #0
 800112a:	4770      	bx	lr

0800112c <HAL_GPIO_WritePin>:
 800112c:	b10a      	cbz	r2, 8001132 <HAL_GPIO_WritePin+0x6>
 800112e:	6181      	str	r1, [r0, #24]
 8001130:	4770      	bx	lr
 8001132:	6281      	str	r1, [r0, #40]	; 0x28
 8001134:	4770      	bx	lr
	...

08001138 <HAL_PWR_EnableBkUpAccess>:
 8001138:	4a02      	ldr	r2, [pc, #8]	; (8001144 <HAL_PWR_EnableBkUpAccess+0xc>)
 800113a:	6813      	ldr	r3, [r2, #0]
 800113c:	f443 7380 	orr.w	r3, r3, #256	; 0x100
 8001140:	6013      	str	r3, [r2, #0]
 8001142:	4770      	bx	lr
 8001144:	40007000 	.word	0x40007000

08001148 <HAL_PWR_EnableWakeUpPin>:
 8001148:	4a06      	ldr	r2, [pc, #24]	; (8001164 <HAL_PWR_EnableWakeUpPin+0x1c>)
 800114a:	68d3      	ldr	r3, [r2, #12]
 800114c:	f000 011f 	and.w	r1, r0, #31
 8001150:	ea23 0301 	bic.w	r3, r3, r1
 8001154:	ea43 1050 	orr.w	r0, r3, r0, lsr #5
 8001158:	60d0      	str	r0, [r2, #12]
 800115a:	6893      	ldr	r3, [r2, #8]
 800115c:	4319      	orrs	r1, r3
 800115e:	6091      	str	r1, [r2, #8]
 8001160:	4770      	bx	lr
 8001162:	bf00      	nop
 8001164:	40007000 	.word	0x40007000

08001168 <HAL_PWR_DisableWakeUpPin>:
 8001168:	4a03      	ldr	r2, [pc, #12]	; (8001178 <HAL_PWR_DisableWakeUpPin+0x10>)
 800116a:	6893      	ldr	r3, [r2, #8]
 800116c:	f000 001f 	and.w	r0, r0, #31
 8001170:	ea23 0300 	bic.w	r3, r3, r0
 8001174:	6093      	str	r3, [r2, #8]
 8001176:	4770      	bx	lr
 8001178:	40007000 	.word	0x40007000

0800117c <HAL_PWREx_GetVoltageRange>:
 800117c:	4b02      	ldr	r3, [pc, #8]	; (8001188 <HAL_PWREx_GetVoltageRange+0xc>)
 800117e:	6818      	ldr	r0, [r3, #0]
 8001180:	f400 60c0 	and.w	r0, r0, #1536	; 0x600
 8001184:	4770      	bx	lr
 8001186:	bf00      	nop
 8001188:	40007000 	.word	0x40007000

0800118c <HAL_PWREx_ControlVoltageScaling>:
 800118c:	4b17      	ldr	r3, [pc, #92]	; (80011ec <HAL_PWREx_ControlVoltageScaling+0x60>)
 800118e:	681a      	ldr	r2, [r3, #0]
 8001190:	f5b0 7f00 	cmp.w	r0, #512	; 0x200
 8001194:	f402 62c0 	and.w	r2, r2, #1536	; 0x600
 8001198:	d11c      	bne.n	80011d4 <HAL_PWREx_ControlVoltageScaling+0x48>
 800119a:	f5b2 7f00 	cmp.w	r2, #512	; 0x200
 800119e:	d015      	beq.n	80011cc <HAL_PWREx_ControlVoltageScaling+0x40>
 80011a0:	681a      	ldr	r2, [r3, #0]
 80011a2:	f422 62c0 	bic.w	r2, r2, #1536	; 0x600
 80011a6:	f442 7200 	orr.w	r2, r2, #512	; 0x200
 80011aa:	601a      	str	r2, [r3, #0]
 80011ac:	4a10      	ldr	r2, [pc, #64]	; (80011f0 <HAL_PWREx_ControlVoltageScaling+0x64>)
 80011ae:	6811      	ldr	r1, [r2, #0]
 80011b0:	2232      	movs	r2, #50	; 0x32
 80011b2:	434a      	muls	r2, r1
 80011b4:	490f      	ldr	r1, [pc, #60]	; (80011f4 <HAL_PWREx_ControlVoltageScaling+0x68>)
 80011b6:	fbb2 f2f1 	udiv	r2, r2, r1
 80011ba:	4619      	mov	r1, r3
 80011bc:	3201      	adds	r2, #1
 80011be:	6958      	ldr	r0, [r3, #20]
 80011c0:	0540      	lsls	r0, r0, #21
 80011c2:	d500      	bpl.n	80011c6 <HAL_PWREx_ControlVoltageScaling+0x3a>
 80011c4:	b922      	cbnz	r2, 80011d0 <HAL_PWREx_ControlVoltageScaling+0x44>
 80011c6:	694b      	ldr	r3, [r1, #20]
 80011c8:	055b      	lsls	r3, r3, #21
 80011ca:	d40d      	bmi.n	80011e8 <HAL_PWREx_ControlVoltageScaling+0x5c>
 80011cc:	2000      	movs	r0, #0
 80011ce:	4770      	bx	lr
 80011d0:	3a01      	subs	r2, #1
 80011d2:	e7f4      	b.n	80011be <HAL_PWREx_ControlVoltageScaling+0x32>
 80011d4:	f5b2 6f80 	cmp.w	r2, #1024	; 0x400
 80011d8:	bf1f      	itttt	ne
 80011da:	681a      	ldrne	r2, [r3, #0]
 80011dc:	f422 62c0 	bicne.w	r2, r2, #1536	; 0x600
 80011e0:	f442 6280 	orrne.w	r2, r2, #1024	; 0x400
 80011e4:	601a      	strne	r2, [r3, #0]
 80011e6:	e7f1      	b.n	80011cc <HAL_PWREx_ControlVoltageScaling+0x40>
 80011e8:	2003      	movs	r0, #3
 80011ea:	4770      	bx	lr
 80011ec:	40007000 	.word	0x40007000
 80011f0:	20000000 	.word	0x20000000
 80011f4:	000f4240 	.word	0x000f4240

080011f8 <HAL_PWREx_EnableGPIOPullUp>:
 80011f8:	2807      	cmp	r0, #7
 80011fa:	d832      	bhi.n	8001262 <HAL_PWREx_EnableGPIOPullUp+0x6a>
 80011fc:	e8df f000 	tbb	[pc, r0]
 8001200:	311d1204 	.word	0x311d1204
 8001204:	26313131 	.word	0x26313131
 8001208:	4b17      	ldr	r3, [pc, #92]	; (8001268 <HAL_PWREx_EnableGPIOPullUp+0x70>)
 800120a:	6a18      	ldr	r0, [r3, #32]
 800120c:	f421 4280 	bic.w	r2, r1, #16384	; 0x4000
 8001210:	4302      	orrs	r2, r0
 8001212:	621a      	str	r2, [r3, #32]
 8001214:	6a5a      	ldr	r2, [r3, #36]	; 0x24
 8001216:	f421 4120 	bic.w	r1, r1, #40960	; 0xa000
 800121a:	ea22 0101 	bic.w	r1, r2, r1
 800121e:	6259      	str	r1, [r3, #36]	; 0x24
 8001220:	2000      	movs	r0, #0
 8001222:	4770      	bx	lr
 8001224:	4b10      	ldr	r3, [pc, #64]	; (8001268 <HAL_PWREx_EnableGPIOPullUp+0x70>)
 8001226:	6a9a      	ldr	r2, [r3, #40]	; 0x28
 8001228:	430a      	orrs	r2, r1
 800122a:	629a      	str	r2, [r3, #40]	; 0x28
 800122c:	6ada      	ldr	r2, [r3, #44]	; 0x2c
 800122e:	f021 0110 	bic.w	r1, r1, #16
 8001232:	ea22 0101 	bic.w	r1, r2, r1
 8001236:	62d9      	str	r1, [r3, #44]	; 0x2c
 8001238:	e7f2      	b.n	8001220 <HAL_PWREx_EnableGPIOPullUp+0x28>
 800123a:	4b0b      	ldr	r3, [pc, #44]	; (8001268 <HAL_PWREx_EnableGPIOPullUp+0x70>)
 800123c:	6b1a      	ldr	r2, [r3, #48]	; 0x30
 800123e:	430a      	orrs	r2, r1
 8001240:	631a      	str	r2, [r3, #48]	; 0x30
 8001242:	6b5a      	ldr	r2, [r3, #52]	; 0x34
 8001244:	ea22 0101 	bic.w	r1, r2, r1
 8001248:	6359      	str	r1, [r3, #52]	; 0x34
 800124a:	e7e9      	b.n	8001220 <HAL_PWREx_EnableGPIOPullUp+0x28>
 800124c:	4b06      	ldr	r3, [pc, #24]	; (8001268 <HAL_PWREx_EnableGPIOPullUp+0x70>)
 800124e:	6d9a      	ldr	r2, [r3, #88]	; 0x58
 8001250:	f001 010b 	and.w	r1, r1, #11
 8001254:	430a      	orrs	r2, r1
 8001256:	659a      	str	r2, [r3, #88]	; 0x58
 8001258:	6dda      	ldr	r2, [r3, #92]	; 0x5c
 800125a:	ea22 0101 	bic.w	r1, r2, r1
 800125e:	65d9      	str	r1, [r3, #92]	; 0x5c
 8001260:	e7de      	b.n	8001220 <HAL_PWREx_EnableGPIOPullUp+0x28>
 8001262:	2001      	movs	r0, #1
 8001264:	4770      	bx	lr
 8001266:	bf00      	nop
 8001268:	40007000 	.word	0x40007000

0800126c <HAL_PWREx_EnableGPIOPullDown>:
 800126c:	2807      	cmp	r0, #7
 800126e:	d832      	bhi.n	80012d6 <HAL_PWREx_EnableGPIOPullDown+0x6a>
 8001270:	e8df f000 	tbb	[pc, r0]
 8001274:	311d1204 	.word	0x311d1204
 8001278:	26313131 	.word	0x26313131
 800127c:	4b17      	ldr	r3, [pc, #92]	; (80012dc <HAL_PWREx_EnableGPIOPullDown+0x70>)
 800127e:	6a58      	ldr	r0, [r3, #36]	; 0x24
 8001280:	f421 4220 	bic.w	r2, r1, #40960	; 0xa000
 8001284:	4302      	orrs	r2, r0
 8001286:	625a      	str	r2, [r3, #36]	; 0x24
 8001288:	6a1a      	ldr	r2, [r3, #32]
 800128a:	f421 4180 	bic.w	r1, r1, #16384	; 0x4000
 800128e:	ea22 0101 	bic.w	r1, r2, r1
 8001292:	6219      	str	r1, [r3, #32]
 8001294:	2000      	movs	r0, #0
 8001296:	4770      	bx	lr
 8001298:	4b10      	ldr	r3, [pc, #64]	; (80012dc <HAL_PWREx_EnableGPIOPullDown+0x70>)
 800129a:	6ad8      	ldr	r0, [r3, #44]	; 0x2c
 800129c:	f021 0210 	bic.w	r2, r1, #16
 80012a0:	4302      	orrs	r2, r0
 80012a2:	62da      	str	r2, [r3, #44]	; 0x2c
 80012a4:	6a9a      	ldr	r2, [r3, #40]	; 0x28
 80012a6:	ea22 0101 	bic.w	r1, r2, r1
 80012aa:	6299      	str	r1, [r3, #40]	; 0x28
 80012ac:	e7f2      	b.n	8001294 <HAL_PWREx_EnableGPIOPullDown+0x28>
 80012ae:	4b0b      	ldr	r3, [pc, #44]	; (80012dc <HAL_PWREx_EnableGPIOPullDown+0x70>)
 80012b0:	6b5a      	ldr	r2, [r3, #52]	; 0x34
 80012b2:	430a      	orrs	r2, r1
 80012b4:	635a      	str	r2, [r3, #52]	; 0x34
 80012b6:	6b1a      	ldr	r2, [r3, #48]	; 0x30
 80012b8:	ea22 0101 	bic.w	r1, r2, r1
 80012bc:	6319      	str	r1, [r3, #48]	; 0x30
 80012be:	e7e9      	b.n	8001294 <HAL_PWREx_EnableGPIOPullDown+0x28>
 80012c0:	4b06      	ldr	r3, [pc, #24]	; (80012dc <HAL_PWREx_EnableGPIOPullDown+0x70>)
 80012c2:	6dda      	ldr	r2, [r3, #92]	; 0x5c
 80012c4:	f001 010b 	and.w	r1, r1, #11
 80012c8:	430a      	orrs	r2, r1
 80012ca:	65da      	str	r2, [r3, #92]	; 0x5c
 80012cc:	6d9a      	ldr	r2, [r3, #88]	; 0x58
 80012ce:	ea22 0101 	bic.w	r1, r2, r1
 80012d2:	6599      	str	r1, [r3, #88]	; 0x58
 80012d4:	e7de      	b.n	8001294 <HAL_PWREx_EnableGPIOPullDown+0x28>
 80012d6:	2001      	movs	r0, #1
 80012d8:	4770      	bx	lr
 80012da:	bf00      	nop
 80012dc:	40007000 	.word	0x40007000

080012e0 <HAL_PWREx_EnablePullUpPullDownConfig>:
 80012e0:	4a02      	ldr	r2, [pc, #8]	; (80012ec <HAL_PWREx_EnablePullUpPullDownConfig+0xc>)
 80012e2:	6893      	ldr	r3, [r2, #8]
 80012e4:	f443 6380 	orr.w	r3, r3, #1024	; 0x400
 80012e8:	6093      	str	r3, [r2, #8]
 80012ea:	4770      	bx	lr
 80012ec:	40007000 	.word	0x40007000

080012f0 <HAL_PWREx_EnableLowPowerRunMode>:
 80012f0:	4a02      	ldr	r2, [pc, #8]	; (80012fc <HAL_PWREx_EnableLowPowerRunMode+0xc>)
 80012f2:	6813      	ldr	r3, [r2, #0]
 80012f4:	f443 4380 	orr.w	r3, r3, #16384	; 0x4000
 80012f8:	6013      	str	r3, [r2, #0]
 80012fa:	4770      	bx	lr
 80012fc:	40007000 	.word	0x40007000

08001300 <HAL_PWREx_EnterSHUTDOWNMode>:
 8001300:	4a06      	ldr	r2, [pc, #24]	; (800131c <HAL_PWREx_EnterSHUTDOWNMode+0x1c>)
 8001302:	6813      	ldr	r3, [r2, #0]
 8001304:	f023 0307 	bic.w	r3, r3, #7
 8001308:	f043 0304 	orr.w	r3, r3, #4
 800130c:	6013      	str	r3, [r2, #0]
 800130e:	4a04      	ldr	r2, [pc, #16]	; (8001320 <HAL_PWREx_EnterSHUTDOWNMode+0x20>)
 8001310:	6913      	ldr	r3, [r2, #16]
 8001312:	f043 0304 	orr.w	r3, r3, #4
 8001316:	6113      	str	r3, [r2, #16]
 8001318:	bf30      	wfi
 800131a:	4770      	bx	lr
 800131c:	40007000 	.word	0x40007000
 8001320:	e000ed00 	.word	0xe000ed00

08001324 <RCC_SetFlashLatencyFromMSIRange>:
 8001324:	b537      	push	{r0, r1, r2, r4, r5, lr}
 8001326:	4d1e      	ldr	r5, [pc, #120]	; (80013a0 <RCC_SetFlashLatencyFromMSIRange+0x7c>)
 8001328:	6dab      	ldr	r3, [r5, #88]	; 0x58
 800132a:	00da      	lsls	r2, r3, #3
 800132c:	4604      	mov	r4, r0
 800132e:	d518      	bpl.n	8001362 <RCC_SetFlashLatencyFromMSIRange+0x3e>
 8001330:	f7ff ff24 	bl	800117c <HAL_PWREx_GetVoltageRange>
 8001334:	f5b0 7f00 	cmp.w	r0, #512	; 0x200
 8001338:	d123      	bne.n	8001382 <RCC_SetFlashLatencyFromMSIRange+0x5e>
 800133a:	2c80      	cmp	r4, #128	; 0x80
 800133c:	d929      	bls.n	8001392 <RCC_SetFlashLatencyFromMSIRange+0x6e>
 800133e:	2ca0      	cmp	r4, #160	; 0xa0
 8001340:	bf8c      	ite	hi
 8001342:	2002      	movhi	r0, #2
 8001344:	2001      	movls	r0, #1
 8001346:	4a17      	ldr	r2, [pc, #92]	; (80013a4 <RCC_SetFlashLatencyFromMSIRange+0x80>)
 8001348:	6813      	ldr	r3, [r2, #0]
 800134a:	f023 0307 	bic.w	r3, r3, #7
 800134e:	4303      	orrs	r3, r0
 8001350:	6013      	str	r3, [r2, #0]
 8001352:	6813      	ldr	r3, [r2, #0]
 8001354:	f003 0307 	and.w	r3, r3, #7
 8001358:	1a18      	subs	r0, r3, r0
 800135a:	bf18      	it	ne
 800135c:	2001      	movne	r0, #1
 800135e:	b003      	add	sp, #12
 8001360:	bd30      	pop	{r4, r5, pc}
 8001362:	6dab      	ldr	r3, [r5, #88]	; 0x58
 8001364:	f043 5380 	orr.w	r3, r3, #268435456	; 0x10000000
 8001368:	65ab      	str	r3, [r5, #88]	; 0x58
 800136a:	6dab      	ldr	r3, [r5, #88]	; 0x58
 800136c:	f003 5380 	and.w	r3, r3, #268435456	; 0x10000000
 8001370:	9301      	str	r3, [sp, #4]
 8001372:	9b01      	ldr	r3, [sp, #4]
 8001374:	f7ff ff02 	bl	800117c <HAL_PWREx_GetVoltageRange>
 8001378:	6dab      	ldr	r3, [r5, #88]	; 0x58
 800137a:	f023 5380 	bic.w	r3, r3, #268435456	; 0x10000000
 800137e:	65ab      	str	r3, [r5, #88]	; 0x58
 8001380:	e7d8      	b.n	8001334 <RCC_SetFlashLatencyFromMSIRange+0x10>
 8001382:	2c80      	cmp	r4, #128	; 0x80
 8001384:	d807      	bhi.n	8001396 <RCC_SetFlashLatencyFromMSIRange+0x72>
 8001386:	d008      	beq.n	800139a <RCC_SetFlashLatencyFromMSIRange+0x76>
 8001388:	f1a4 0370 	sub.w	r3, r4, #112	; 0x70
 800138c:	4258      	negs	r0, r3
 800138e:	4158      	adcs	r0, r3
 8001390:	e7d9      	b.n	8001346 <RCC_SetFlashLatencyFromMSIRange+0x22>
 8001392:	2000      	movs	r0, #0
 8001394:	e7d7      	b.n	8001346 <RCC_SetFlashLatencyFromMSIRange+0x22>
 8001396:	2003      	movs	r0, #3
 8001398:	e7d5      	b.n	8001346 <RCC_SetFlashLatencyFromMSIRange+0x22>
 800139a:	2002      	movs	r0, #2
 800139c:	e7d3      	b.n	8001346 <RCC_SetFlashLatencyFromMSIRange+0x22>
 800139e:	bf00      	nop
 80013a0:	40021000 	.word	0x40021000
 80013a4:	40022000 	.word	0x40022000

080013a8 <HAL_RCC_GetSysClockFreq>:
 80013a8:	4b22      	ldr	r3, [pc, #136]	; (8001434 <HAL_RCC_GetSysClockFreq+0x8c>)
 80013aa:	689a      	ldr	r2, [r3, #8]
 80013ac:	68d9      	ldr	r1, [r3, #12]
 80013ae:	f012 020c 	ands.w	r2, r2, #12
 80013b2:	d005      	beq.n	80013c0 <HAL_RCC_GetSysClockFreq+0x18>
 80013b4:	2a0c      	cmp	r2, #12
 80013b6:	d115      	bne.n	80013e4 <HAL_RCC_GetSysClockFreq+0x3c>
 80013b8:	f001 0103 	and.w	r1, r1, #3
 80013bc:	2901      	cmp	r1, #1
 80013be:	d118      	bne.n	80013f2 <HAL_RCC_GetSysClockFreq+0x4a>
 80013c0:	6819      	ldr	r1, [r3, #0]
 80013c2:	481d      	ldr	r0, [pc, #116]	; (8001438 <HAL_RCC_GetSysClockFreq+0x90>)
 80013c4:	0709      	lsls	r1, r1, #28
 80013c6:	bf55      	itete	pl
 80013c8:	f8d3 1094 	ldrpl.w	r1, [r3, #148]	; 0x94
 80013cc:	6819      	ldrmi	r1, [r3, #0]
 80013ce:	f3c1 2103 	ubfxpl	r1, r1, #8, #4
 80013d2:	f3c1 1103 	ubfxmi	r1, r1, #4, #4
 80013d6:	f850 0021 	ldr.w	r0, [r0, r1, lsl #2]
 80013da:	b34a      	cbz	r2, 8001430 <HAL_RCC_GetSysClockFreq+0x88>
 80013dc:	2a0c      	cmp	r2, #12
 80013de:	d009      	beq.n	80013f4 <HAL_RCC_GetSysClockFreq+0x4c>
 80013e0:	2000      	movs	r0, #0
 80013e2:	4770      	bx	lr
 80013e4:	2a04      	cmp	r2, #4
 80013e6:	d022      	beq.n	800142e <HAL_RCC_GetSysClockFreq+0x86>
 80013e8:	2a08      	cmp	r2, #8
 80013ea:	4814      	ldr	r0, [pc, #80]	; (800143c <HAL_RCC_GetSysClockFreq+0x94>)
 80013ec:	bf18      	it	ne
 80013ee:	2000      	movne	r0, #0
 80013f0:	4770      	bx	lr
 80013f2:	2000      	movs	r0, #0
 80013f4:	68da      	ldr	r2, [r3, #12]
 80013f6:	f002 0203 	and.w	r2, r2, #3
 80013fa:	2a02      	cmp	r2, #2
 80013fc:	d015      	beq.n	800142a <HAL_RCC_GetSysClockFreq+0x82>
 80013fe:	490f      	ldr	r1, [pc, #60]	; (800143c <HAL_RCC_GetSysClockFreq+0x94>)
 8001400:	2a03      	cmp	r2, #3
 8001402:	bf08      	it	eq
 8001404:	4608      	moveq	r0, r1
 8001406:	68da      	ldr	r2, [r3, #12]
 8001408:	68d9      	ldr	r1, [r3, #12]
 800140a:	68db      	ldr	r3, [r3, #12]
 800140c:	f3c3 6341 	ubfx	r3, r3, #25, #2
 8001410:	f3c1 2106 	ubfx	r1, r1, #8, #7
 8001414:	f3c2 1202 	ubfx	r2, r2, #4, #3
 8001418:	3301      	adds	r3, #1
 800141a:	4348      	muls	r0, r1
 800141c:	3201      	adds	r2, #1
 800141e:	005b      	lsls	r3, r3, #1
 8001420:	fbb0 f0f2 	udiv	r0, r0, r2
 8001424:	fbb0 f0f3 	udiv	r0, r0, r3
 8001428:	4770      	bx	lr
 800142a:	4805      	ldr	r0, [pc, #20]	; (8001440 <HAL_RCC_GetSysClockFreq+0x98>)
 800142c:	e7eb      	b.n	8001406 <HAL_RCC_GetSysClockFreq+0x5e>
 800142e:	4804      	ldr	r0, [pc, #16]	; (8001440 <HAL_RCC_GetSysClockFreq+0x98>)
 8001430:	4770      	bx	lr
 8001432:	bf00      	nop
 8001434:	40021000 	.word	0x40021000
 8001438:	080050b4 	.word	0x080050b4
 800143c:	007a1200 	.word	0x007a1200
 8001440:	00f42400 	.word	0x00f42400

08001444 <HAL_RCC_OscConfig>:
 8001444:	e92d 43f7 	stmdb	sp!, {r0, r1, r2, r4, r5, r6, r7, r8, r9, lr}
 8001448:	4605      	mov	r5, r0
 800144a:	b908      	cbnz	r0, 8001450 <HAL_RCC_OscConfig+0xc>
 800144c:	2001      	movs	r0, #1
 800144e:	e047      	b.n	80014e0 <HAL_RCC_OscConfig+0x9c>
 8001450:	4c9f      	ldr	r4, [pc, #636]	; (80016d0 <HAL_RCC_OscConfig+0x28c>)
 8001452:	6803      	ldr	r3, [r0, #0]
 8001454:	68a6      	ldr	r6, [r4, #8]
 8001456:	68e7      	ldr	r7, [r4, #12]
 8001458:	06db      	lsls	r3, r3, #27
 800145a:	f006 060c 	and.w	r6, r6, #12
 800145e:	f007 0703 	and.w	r7, r7, #3
 8001462:	d575      	bpl.n	8001550 <HAL_RCC_OscConfig+0x10c>
 8001464:	b11e      	cbz	r6, 800146e <HAL_RCC_OscConfig+0x2a>
 8001466:	2e0c      	cmp	r6, #12
 8001468:	d154      	bne.n	8001514 <HAL_RCC_OscConfig+0xd0>
 800146a:	2f01      	cmp	r7, #1
 800146c:	d152      	bne.n	8001514 <HAL_RCC_OscConfig+0xd0>
 800146e:	6823      	ldr	r3, [r4, #0]
 8001470:	0798      	lsls	r0, r3, #30
 8001472:	d502      	bpl.n	800147a <HAL_RCC_OscConfig+0x36>
 8001474:	69ab      	ldr	r3, [r5, #24]
 8001476:	2b00      	cmp	r3, #0
 8001478:	d0e8      	beq.n	800144c <HAL_RCC_OscConfig+0x8>
 800147a:	6823      	ldr	r3, [r4, #0]
 800147c:	6a28      	ldr	r0, [r5, #32]
 800147e:	0719      	lsls	r1, r3, #28
 8001480:	bf56      	itet	pl
 8001482:	f8d4 3094 	ldrpl.w	r3, [r4, #148]	; 0x94
 8001486:	6823      	ldrmi	r3, [r4, #0]
 8001488:	091b      	lsrpl	r3, r3, #4
 800148a:	f003 03f0 	and.w	r3, r3, #240	; 0xf0
 800148e:	4298      	cmp	r0, r3
 8001490:	d929      	bls.n	80014e6 <HAL_RCC_OscConfig+0xa2>
 8001492:	f7ff ff47 	bl	8001324 <RCC_SetFlashLatencyFromMSIRange>
 8001496:	2800      	cmp	r0, #0
 8001498:	d1d8      	bne.n	800144c <HAL_RCC_OscConfig+0x8>
 800149a:	6823      	ldr	r3, [r4, #0]
 800149c:	f043 0308 	orr.w	r3, r3, #8
 80014a0:	6023      	str	r3, [r4, #0]
 80014a2:	6823      	ldr	r3, [r4, #0]
 80014a4:	6a2a      	ldr	r2, [r5, #32]
 80014a6:	f023 03f0 	bic.w	r3, r3, #240	; 0xf0
 80014aa:	4313      	orrs	r3, r2
 80014ac:	6023      	str	r3, [r4, #0]
 80014ae:	6863      	ldr	r3, [r4, #4]
 80014b0:	69ea      	ldr	r2, [r5, #28]
 80014b2:	f423 437f 	bic.w	r3, r3, #65280	; 0xff00
 80014b6:	ea43 2302 	orr.w	r3, r3, r2, lsl #8
 80014ba:	6063      	str	r3, [r4, #4]
 80014bc:	f7ff ff74 	bl	80013a8 <HAL_RCC_GetSysClockFreq>
 80014c0:	68a3      	ldr	r3, [r4, #8]
 80014c2:	4a84      	ldr	r2, [pc, #528]	; (80016d4 <HAL_RCC_OscConfig+0x290>)
 80014c4:	f3c3 1303 	ubfx	r3, r3, #4, #4
 80014c8:	5cd3      	ldrb	r3, [r2, r3]
 80014ca:	f003 031f 	and.w	r3, r3, #31
 80014ce:	40d8      	lsrs	r0, r3
 80014d0:	4b81      	ldr	r3, [pc, #516]	; (80016d8 <HAL_RCC_OscConfig+0x294>)
 80014d2:	6018      	str	r0, [r3, #0]
 80014d4:	4b81      	ldr	r3, [pc, #516]	; (80016dc <HAL_RCC_OscConfig+0x298>)
 80014d6:	6818      	ldr	r0, [r3, #0]
 80014d8:	f7fe ffb8 	bl	800044c <HAL_InitTick>
 80014dc:	2800      	cmp	r0, #0
 80014de:	d037      	beq.n	8001550 <HAL_RCC_OscConfig+0x10c>
 80014e0:	b003      	add	sp, #12
 80014e2:	e8bd 83f0 	ldmia.w	sp!, {r4, r5, r6, r7, r8, r9, pc}
 80014e6:	6823      	ldr	r3, [r4, #0]
 80014e8:	f043 0308 	orr.w	r3, r3, #8
 80014ec:	6023      	str	r3, [r4, #0]
 80014ee:	6823      	ldr	r3, [r4, #0]
 80014f0:	f023 03f0 	bic.w	r3, r3, #240	; 0xf0
 80014f4:	4303      	orrs	r3, r0
 80014f6:	6023      	str	r3, [r4, #0]
 80014f8:	6863      	ldr	r3, [r4, #4]
 80014fa:	69ea      	ldr	r2, [r5, #28]
 80014fc:	f423 437f 	bic.w	r3, r3, #65280	; 0xff00
 8001500:	ea43 2302 	orr.w	r3, r3, r2, lsl #8
 8001504:	6063      	str	r3, [r4, #4]
 8001506:	2e00      	cmp	r6, #0
 8001508:	d1d8      	bne.n	80014bc <HAL_RCC_OscConfig+0x78>
 800150a:	f7ff ff0b 	bl	8001324 <RCC_SetFlashLatencyFromMSIRange>
 800150e:	2800      	cmp	r0, #0
 8001510:	d0d4      	beq.n	80014bc <HAL_RCC_OscConfig+0x78>
 8001512:	e79b      	b.n	800144c <HAL_RCC_OscConfig+0x8>
 8001514:	69ab      	ldr	r3, [r5, #24]
 8001516:	2b00      	cmp	r3, #0
 8001518:	d03a      	beq.n	8001590 <HAL_RCC_OscConfig+0x14c>
 800151a:	6823      	ldr	r3, [r4, #0]
 800151c:	f043 0301 	orr.w	r3, r3, #1
 8001520:	6023      	str	r3, [r4, #0]
 8001522:	f7fe ffd5 	bl	80004d0 <HAL_GetTick>
 8001526:	4680      	mov	r8, r0
 8001528:	6823      	ldr	r3, [r4, #0]
 800152a:	079a      	lsls	r2, r3, #30
 800152c:	d528      	bpl.n	8001580 <HAL_RCC_OscConfig+0x13c>
 800152e:	6823      	ldr	r3, [r4, #0]
 8001530:	f043 0308 	orr.w	r3, r3, #8
 8001534:	6023      	str	r3, [r4, #0]
 8001536:	6823      	ldr	r3, [r4, #0]
 8001538:	6a2a      	ldr	r2, [r5, #32]
 800153a:	f023 03f0 	bic.w	r3, r3, #240	; 0xf0
 800153e:	4313      	orrs	r3, r2
 8001540:	6023      	str	r3, [r4, #0]
 8001542:	6863      	ldr	r3, [r4, #4]
 8001544:	69ea      	ldr	r2, [r5, #28]
 8001546:	f423 437f 	bic.w	r3, r3, #65280	; 0xff00
 800154a:	ea43 2302 	orr.w	r3, r3, r2, lsl #8
 800154e:	6063      	str	r3, [r4, #4]
 8001550:	682b      	ldr	r3, [r5, #0]
 8001552:	07d8      	lsls	r0, r3, #31
 8001554:	d42d      	bmi.n	80015b2 <HAL_RCC_OscConfig+0x16e>
 8001556:	682b      	ldr	r3, [r5, #0]
 8001558:	0799      	lsls	r1, r3, #30
 800155a:	d46b      	bmi.n	8001634 <HAL_RCC_OscConfig+0x1f0>
 800155c:	682b      	ldr	r3, [r5, #0]
 800155e:	0718      	lsls	r0, r3, #28
 8001560:	f100 80a0 	bmi.w	80016a4 <HAL_RCC_OscConfig+0x260>
 8001564:	682b      	ldr	r3, [r5, #0]
 8001566:	0759      	lsls	r1, r3, #29
 8001568:	f100 80ce 	bmi.w	8001708 <HAL_RCC_OscConfig+0x2c4>
 800156c:	682b      	ldr	r3, [r5, #0]
 800156e:	0698      	lsls	r0, r3, #26
 8001570:	f100 8137 	bmi.w	80017e2 <HAL_RCC_OscConfig+0x39e>
 8001574:	6aab      	ldr	r3, [r5, #40]	; 0x28
 8001576:	2b00      	cmp	r3, #0
 8001578:	f040 815d 	bne.w	8001836 <HAL_RCC_OscConfig+0x3f2>
 800157c:	2000      	movs	r0, #0
 800157e:	e7af      	b.n	80014e0 <HAL_RCC_OscConfig+0x9c>
 8001580:	f7fe ffa6 	bl	80004d0 <HAL_GetTick>
 8001584:	eba0 0008 	sub.w	r0, r0, r8
 8001588:	2802      	cmp	r0, #2
 800158a:	d9cd      	bls.n	8001528 <HAL_RCC_OscConfig+0xe4>
 800158c:	2003      	movs	r0, #3
 800158e:	e7a7      	b.n	80014e0 <HAL_RCC_OscConfig+0x9c>
 8001590:	6823      	ldr	r3, [r4, #0]
 8001592:	f023 0301 	bic.w	r3, r3, #1
 8001596:	6023      	str	r3, [r4, #0]
 8001598:	f7fe ff9a 	bl	80004d0 <HAL_GetTick>
 800159c:	4680      	mov	r8, r0
 800159e:	6823      	ldr	r3, [r4, #0]
 80015a0:	079b      	lsls	r3, r3, #30
 80015a2:	d5d5      	bpl.n	8001550 <HAL_RCC_OscConfig+0x10c>
 80015a4:	f7fe ff94 	bl	80004d0 <HAL_GetTick>
 80015a8:	eba0 0008 	sub.w	r0, r0, r8
 80015ac:	2802      	cmp	r0, #2
 80015ae:	d9f6      	bls.n	800159e <HAL_RCC_OscConfig+0x15a>
 80015b0:	e7ec      	b.n	800158c <HAL_RCC_OscConfig+0x148>
 80015b2:	2e08      	cmp	r6, #8
 80015b4:	d003      	beq.n	80015be <HAL_RCC_OscConfig+0x17a>
 80015b6:	2e0c      	cmp	r6, #12
 80015b8:	d108      	bne.n	80015cc <HAL_RCC_OscConfig+0x188>
 80015ba:	2f03      	cmp	r7, #3
 80015bc:	d106      	bne.n	80015cc <HAL_RCC_OscConfig+0x188>
 80015be:	6823      	ldr	r3, [r4, #0]
 80015c0:	039a      	lsls	r2, r3, #14
 80015c2:	d5c8      	bpl.n	8001556 <HAL_RCC_OscConfig+0x112>
 80015c4:	686b      	ldr	r3, [r5, #4]
 80015c6:	2b00      	cmp	r3, #0
 80015c8:	d1c5      	bne.n	8001556 <HAL_RCC_OscConfig+0x112>
 80015ca:	e73f      	b.n	800144c <HAL_RCC_OscConfig+0x8>
 80015cc:	686b      	ldr	r3, [r5, #4]
 80015ce:	f5b3 3f80 	cmp.w	r3, #65536	; 0x10000
 80015d2:	d110      	bne.n	80015f6 <HAL_RCC_OscConfig+0x1b2>
 80015d4:	6823      	ldr	r3, [r4, #0]
 80015d6:	f443 3380 	orr.w	r3, r3, #65536	; 0x10000
 80015da:	6023      	str	r3, [r4, #0]
 80015dc:	f7fe ff78 	bl	80004d0 <HAL_GetTick>
 80015e0:	4680      	mov	r8, r0
 80015e2:	6823      	ldr	r3, [r4, #0]
 80015e4:	039b      	lsls	r3, r3, #14
 80015e6:	d4b6      	bmi.n	8001556 <HAL_RCC_OscConfig+0x112>
 80015e8:	f7fe ff72 	bl	80004d0 <HAL_GetTick>
 80015ec:	eba0 0008 	sub.w	r0, r0, r8
 80015f0:	2864      	cmp	r0, #100	; 0x64
 80015f2:	d9f6      	bls.n	80015e2 <HAL_RCC_OscConfig+0x19e>
 80015f4:	e7ca      	b.n	800158c <HAL_RCC_OscConfig+0x148>
 80015f6:	f5b3 2fa0 	cmp.w	r3, #327680	; 0x50000
 80015fa:	d104      	bne.n	8001606 <HAL_RCC_OscConfig+0x1c2>
 80015fc:	6823      	ldr	r3, [r4, #0]
 80015fe:	f443 2380 	orr.w	r3, r3, #262144	; 0x40000
 8001602:	6023      	str	r3, [r4, #0]
 8001604:	e7e6      	b.n	80015d4 <HAL_RCC_OscConfig+0x190>
 8001606:	6822      	ldr	r2, [r4, #0]
 8001608:	f422 3280 	bic.w	r2, r2, #65536	; 0x10000
 800160c:	6022      	str	r2, [r4, #0]
 800160e:	6822      	ldr	r2, [r4, #0]
 8001610:	f422 2280 	bic.w	r2, r2, #262144	; 0x40000
 8001614:	6022      	str	r2, [r4, #0]
 8001616:	2b00      	cmp	r3, #0
 8001618:	d1e0      	bne.n	80015dc <HAL_RCC_OscConfig+0x198>
 800161a:	f7fe ff59 	bl	80004d0 <HAL_GetTick>
 800161e:	4680      	mov	r8, r0
 8001620:	6823      	ldr	r3, [r4, #0]
 8001622:	0398      	lsls	r0, r3, #14
 8001624:	d597      	bpl.n	8001556 <HAL_RCC_OscConfig+0x112>
 8001626:	f7fe ff53 	bl	80004d0 <HAL_GetTick>
 800162a:	eba0 0008 	sub.w	r0, r0, r8
 800162e:	2864      	cmp	r0, #100	; 0x64
 8001630:	d9f6      	bls.n	8001620 <HAL_RCC_OscConfig+0x1dc>
 8001632:	e7ab      	b.n	800158c <HAL_RCC_OscConfig+0x148>
 8001634:	2e04      	cmp	r6, #4
 8001636:	d003      	beq.n	8001640 <HAL_RCC_OscConfig+0x1fc>
 8001638:	2e0c      	cmp	r6, #12
 800163a:	d110      	bne.n	800165e <HAL_RCC_OscConfig+0x21a>
 800163c:	2f02      	cmp	r7, #2
 800163e:	d10e      	bne.n	800165e <HAL_RCC_OscConfig+0x21a>
 8001640:	6823      	ldr	r3, [r4, #0]
 8001642:	0559      	lsls	r1, r3, #21
 8001644:	d503      	bpl.n	800164e <HAL_RCC_OscConfig+0x20a>
 8001646:	68eb      	ldr	r3, [r5, #12]
 8001648:	2b00      	cmp	r3, #0
 800164a:	f43f aeff 	beq.w	800144c <HAL_RCC_OscConfig+0x8>
 800164e:	6863      	ldr	r3, [r4, #4]
 8001650:	692a      	ldr	r2, [r5, #16]
 8001652:	f023 43fe 	bic.w	r3, r3, #2130706432	; 0x7f000000
 8001656:	ea43 6302 	orr.w	r3, r3, r2, lsl #24
 800165a:	6063      	str	r3, [r4, #4]
 800165c:	e77e      	b.n	800155c <HAL_RCC_OscConfig+0x118>
 800165e:	68eb      	ldr	r3, [r5, #12]
 8001660:	b17b      	cbz	r3, 8001682 <HAL_RCC_OscConfig+0x23e>
 8001662:	6823      	ldr	r3, [r4, #0]
 8001664:	f443 7380 	orr.w	r3, r3, #256	; 0x100
 8001668:	6023      	str	r3, [r4, #0]
 800166a:	f7fe ff31 	bl	80004d0 <HAL_GetTick>
 800166e:	4607      	mov	r7, r0
 8001670:	6823      	ldr	r3, [r4, #0]
 8001672:	055a      	lsls	r2, r3, #21
 8001674:	d4eb      	bmi.n	800164e <HAL_RCC_OscConfig+0x20a>
 8001676:	f7fe ff2b 	bl	80004d0 <HAL_GetTick>
 800167a:	1bc0      	subs	r0, r0, r7
 800167c:	2802      	cmp	r0, #2
 800167e:	d9f7      	bls.n	8001670 <HAL_RCC_OscConfig+0x22c>
 8001680:	e784      	b.n	800158c <HAL_RCC_OscConfig+0x148>
 8001682:	6823      	ldr	r3, [r4, #0]
 8001684:	f423 7380 	bic.w	r3, r3, #256	; 0x100
 8001688:	6023      	str	r3, [r4, #0]
 800168a:	f7fe ff21 	bl	80004d0 <HAL_GetTick>
 800168e:	4607      	mov	r7, r0
 8001690:	6823      	ldr	r3, [r4, #0]
 8001692:	055b      	lsls	r3, r3, #21
 8001694:	f57f af62 	bpl.w	800155c <HAL_RCC_OscConfig+0x118>
 8001698:	f7fe ff1a 	bl	80004d0 <HAL_GetTick>
 800169c:	1bc0      	subs	r0, r0, r7
 800169e:	2802      	cmp	r0, #2
 80016a0:	d9f6      	bls.n	8001690 <HAL_RCC_OscConfig+0x24c>
 80016a2:	e773      	b.n	800158c <HAL_RCC_OscConfig+0x148>
 80016a4:	696b      	ldr	r3, [r5, #20]
 80016a6:	b1db      	cbz	r3, 80016e0 <HAL_RCC_OscConfig+0x29c>
 80016a8:	f8d4 3094 	ldr.w	r3, [r4, #148]	; 0x94
 80016ac:	f043 0301 	orr.w	r3, r3, #1
 80016b0:	f8c4 3094 	str.w	r3, [r4, #148]	; 0x94
 80016b4:	f7fe ff0c 	bl	80004d0 <HAL_GetTick>
 80016b8:	4607      	mov	r7, r0
 80016ba:	f8d4 3094 	ldr.w	r3, [r4, #148]	; 0x94
 80016be:	079a      	lsls	r2, r3, #30
 80016c0:	f53f af50 	bmi.w	8001564 <HAL_RCC_OscConfig+0x120>
 80016c4:	f7fe ff04 	bl	80004d0 <HAL_GetTick>
 80016c8:	1bc0      	subs	r0, r0, r7
 80016ca:	2802      	cmp	r0, #2
 80016cc:	d9f5      	bls.n	80016ba <HAL_RCC_OscConfig+0x276>
 80016ce:	e75d      	b.n	800158c <HAL_RCC_OscConfig+0x148>
 80016d0:	40021000 	.word	0x40021000
 80016d4:	080050a4 	.word	0x080050a4
 80016d8:	20000000 	.word	0x20000000
 80016dc:	20000008 	.word	0x20000008
 80016e0:	f8d4 3094 	ldr.w	r3, [r4, #148]	; 0x94
 80016e4:	f023 0301 	bic.w	r3, r3, #1
 80016e8:	f8c4 3094 	str.w	r3, [r4, #148]	; 0x94
 80016ec:	f7fe fef0 	bl	80004d0 <HAL_GetTick>
 80016f0:	4607      	mov	r7, r0
 80016f2:	f8d4 3094 	ldr.w	r3, [r4, #148]	; 0x94
 80016f6:	079b      	lsls	r3, r3, #30
 80016f8:	f57f af34 	bpl.w	8001564 <HAL_RCC_OscConfig+0x120>
 80016fc:	f7fe fee8 	bl	80004d0 <HAL_GetTick>
 8001700:	1bc0      	subs	r0, r0, r7
 8001702:	2802      	cmp	r0, #2
 8001704:	d9f5      	bls.n	80016f2 <HAL_RCC_OscConfig+0x2ae>
 8001706:	e741      	b.n	800158c <HAL_RCC_OscConfig+0x148>
 8001708:	6da3      	ldr	r3, [r4, #88]	; 0x58
 800170a:	00df      	lsls	r7, r3, #3
 800170c:	d429      	bmi.n	8001762 <HAL_RCC_OscConfig+0x31e>
 800170e:	6da3      	ldr	r3, [r4, #88]	; 0x58
 8001710:	f043 5380 	orr.w	r3, r3, #268435456	; 0x10000000
 8001714:	65a3      	str	r3, [r4, #88]	; 0x58
 8001716:	6da3      	ldr	r3, [r4, #88]	; 0x58
 8001718:	f003 5380 	and.w	r3, r3, #268435456	; 0x10000000
 800171c:	9301      	str	r3, [sp, #4]
 800171e:	9b01      	ldr	r3, [sp, #4]
 8001720:	f04f 0801 	mov.w	r8, #1
 8001724:	4f9a      	ldr	r7, [pc, #616]	; (8001990 <HAL_RCC_OscConfig+0x54c>)
 8001726:	683b      	ldr	r3, [r7, #0]
 8001728:	05d8      	lsls	r0, r3, #23
 800172a:	d51d      	bpl.n	8001768 <HAL_RCC_OscConfig+0x324>
 800172c:	68ab      	ldr	r3, [r5, #8]
 800172e:	2b01      	cmp	r3, #1
 8001730:	d12b      	bne.n	800178a <HAL_RCC_OscConfig+0x346>
 8001732:	f8d4 3090 	ldr.w	r3, [r4, #144]	; 0x90
 8001736:	f043 0301 	orr.w	r3, r3, #1
 800173a:	f8c4 3090 	str.w	r3, [r4, #144]	; 0x90
 800173e:	f7fe fec7 	bl	80004d0 <HAL_GetTick>
 8001742:	f241 3988 	movw	r9, #5000	; 0x1388
 8001746:	4607      	mov	r7, r0
 8001748:	f8d4 3090 	ldr.w	r3, [r4, #144]	; 0x90
 800174c:	079a      	lsls	r2, r3, #30
 800174e:	d542      	bpl.n	80017d6 <HAL_RCC_OscConfig+0x392>
 8001750:	f1b8 0f00 	cmp.w	r8, #0
 8001754:	f43f af0a 	beq.w	800156c <HAL_RCC_OscConfig+0x128>
 8001758:	6da3      	ldr	r3, [r4, #88]	; 0x58
 800175a:	f023 5380 	bic.w	r3, r3, #268435456	; 0x10000000
 800175e:	65a3      	str	r3, [r4, #88]	; 0x58
 8001760:	e704      	b.n	800156c <HAL_RCC_OscConfig+0x128>
 8001762:	f04f 0800 	mov.w	r8, #0
 8001766:	e7dd      	b.n	8001724 <HAL_RCC_OscConfig+0x2e0>
 8001768:	683b      	ldr	r3, [r7, #0]
 800176a:	f443 7380 	orr.w	r3, r3, #256	; 0x100
 800176e:	603b      	str	r3, [r7, #0]
 8001770:	f7fe feae 	bl	80004d0 <HAL_GetTick>
 8001774:	4681      	mov	r9, r0
 8001776:	683b      	ldr	r3, [r7, #0]
 8001778:	05d9      	lsls	r1, r3, #23
 800177a:	d4d7      	bmi.n	800172c <HAL_RCC_OscConfig+0x2e8>
 800177c:	f7fe fea8 	bl	80004d0 <HAL_GetTick>
 8001780:	eba0 0009 	sub.w	r0, r0, r9
 8001784:	2802      	cmp	r0, #2
 8001786:	d9f6      	bls.n	8001776 <HAL_RCC_OscConfig+0x332>
 8001788:	e700      	b.n	800158c <HAL_RCC_OscConfig+0x148>
 800178a:	2b05      	cmp	r3, #5
 800178c:	d106      	bne.n	800179c <HAL_RCC_OscConfig+0x358>
 800178e:	f8d4 3090 	ldr.w	r3, [r4, #144]	; 0x90
 8001792:	f043 0304 	orr.w	r3, r3, #4
 8001796:	f8c4 3090 	str.w	r3, [r4, #144]	; 0x90
 800179a:	e7ca      	b.n	8001732 <HAL_RCC_OscConfig+0x2ee>
 800179c:	f8d4 2090 	ldr.w	r2, [r4, #144]	; 0x90
 80017a0:	f022 0201 	bic.w	r2, r2, #1
 80017a4:	f8c4 2090 	str.w	r2, [r4, #144]	; 0x90
 80017a8:	f8d4 2090 	ldr.w	r2, [r4, #144]	; 0x90
 80017ac:	f022 0204 	bic.w	r2, r2, #4
 80017b0:	f8c4 2090 	str.w	r2, [r4, #144]	; 0x90
 80017b4:	2b00      	cmp	r3, #0
 80017b6:	d1c2      	bne.n	800173e <HAL_RCC_OscConfig+0x2fa>
 80017b8:	f7fe fe8a 	bl	80004d0 <HAL_GetTick>
 80017bc:	f241 3988 	movw	r9, #5000	; 0x1388
 80017c0:	4607      	mov	r7, r0
 80017c2:	f8d4 3090 	ldr.w	r3, [r4, #144]	; 0x90
 80017c6:	079b      	lsls	r3, r3, #30
 80017c8:	d5c2      	bpl.n	8001750 <HAL_RCC_OscConfig+0x30c>
 80017ca:	f7fe fe81 	bl	80004d0 <HAL_GetTick>
 80017ce:	1bc0      	subs	r0, r0, r7
 80017d0:	4548      	cmp	r0, r9
 80017d2:	d9f6      	bls.n	80017c2 <HAL_RCC_OscConfig+0x37e>
 80017d4:	e6da      	b.n	800158c <HAL_RCC_OscConfig+0x148>
 80017d6:	f7fe fe7b 	bl	80004d0 <HAL_GetTick>
 80017da:	1bc0      	subs	r0, r0, r7
 80017dc:	4548      	cmp	r0, r9
 80017de:	d9b3      	bls.n	8001748 <HAL_RCC_OscConfig+0x304>
 80017e0:	e6d4      	b.n	800158c <HAL_RCC_OscConfig+0x148>
 80017e2:	6a6b      	ldr	r3, [r5, #36]	; 0x24
 80017e4:	b19b      	cbz	r3, 800180e <HAL_RCC_OscConfig+0x3ca>
 80017e6:	f8d4 3098 	ldr.w	r3, [r4, #152]	; 0x98
 80017ea:	f043 0301 	orr.w	r3, r3, #1
 80017ee:	f8c4 3098 	str.w	r3, [r4, #152]	; 0x98
 80017f2:	f7fe fe6d 	bl	80004d0 <HAL_GetTick>
 80017f6:	4607      	mov	r7, r0
 80017f8:	f8d4 3098 	ldr.w	r3, [r4, #152]	; 0x98
 80017fc:	0799      	lsls	r1, r3, #30
 80017fe:	f53f aeb9 	bmi.w	8001574 <HAL_RCC_OscConfig+0x130>
 8001802:	f7fe fe65 	bl	80004d0 <HAL_GetTick>
 8001806:	1bc0      	subs	r0, r0, r7
 8001808:	2802      	cmp	r0, #2
 800180a:	d9f5      	bls.n	80017f8 <HAL_RCC_OscConfig+0x3b4>
 800180c:	e6be      	b.n	800158c <HAL_RCC_OscConfig+0x148>
 800180e:	f8d4 3098 	ldr.w	r3, [r4, #152]	; 0x98
 8001812:	f023 0301 	bic.w	r3, r3, #1
 8001816:	f8c4 3098 	str.w	r3, [r4, #152]	; 0x98
 800181a:	f7fe fe59 	bl	80004d0 <HAL_GetTick>
 800181e:	4607      	mov	r7, r0
 8001820:	f8d4 3098 	ldr.w	r3, [r4, #152]	; 0x98
 8001824:	079a      	lsls	r2, r3, #30
 8001826:	f57f aea5 	bpl.w	8001574 <HAL_RCC_OscConfig+0x130>
 800182a:	f7fe fe51 	bl	80004d0 <HAL_GetTick>
 800182e:	1bc0      	subs	r0, r0, r7
 8001830:	2802      	cmp	r0, #2
 8001832:	d9f5      	bls.n	8001820 <HAL_RCC_OscConfig+0x3dc>
 8001834:	e6aa      	b.n	800158c <HAL_RCC_OscConfig+0x148>
 8001836:	2b02      	cmp	r3, #2
 8001838:	f040 8088 	bne.w	800194c <HAL_RCC_OscConfig+0x508>
 800183c:	68e3      	ldr	r3, [r4, #12]
 800183e:	6aea      	ldr	r2, [r5, #44]	; 0x2c
 8001840:	f003 0103 	and.w	r1, r3, #3
 8001844:	4291      	cmp	r1, r2
 8001846:	d122      	bne.n	800188e <HAL_RCC_OscConfig+0x44a>
 8001848:	6b29      	ldr	r1, [r5, #48]	; 0x30
 800184a:	f003 0270 	and.w	r2, r3, #112	; 0x70
 800184e:	3901      	subs	r1, #1
 8001850:	ebb2 1f01 	cmp.w	r2, r1, lsl #4
 8001854:	d11b      	bne.n	800188e <HAL_RCC_OscConfig+0x44a>
 8001856:	6b69      	ldr	r1, [r5, #52]	; 0x34
 8001858:	f403 42fe 	and.w	r2, r3, #32512	; 0x7f00
 800185c:	ebb2 2f01 	cmp.w	r2, r1, lsl #8
 8001860:	d115      	bne.n	800188e <HAL_RCC_OscConfig+0x44a>
 8001862:	6ba9      	ldr	r1, [r5, #56]	; 0x38
 8001864:	f003 4278 	and.w	r2, r3, #4160749568	; 0xf8000000
 8001868:	ebb2 6fc1 	cmp.w	r2, r1, lsl #27
 800186c:	d10f      	bne.n	800188e <HAL_RCC_OscConfig+0x44a>
 800186e:	6bea      	ldr	r2, [r5, #60]	; 0x3c
 8001870:	0852      	lsrs	r2, r2, #1
 8001872:	f403 01c0 	and.w	r1, r3, #6291456	; 0x600000
 8001876:	3a01      	subs	r2, #1
 8001878:	ebb1 5f42 	cmp.w	r1, r2, lsl #21
 800187c:	d107      	bne.n	800188e <HAL_RCC_OscConfig+0x44a>
 800187e:	6c2a      	ldr	r2, [r5, #64]	; 0x40
 8001880:	0852      	lsrs	r2, r2, #1
 8001882:	f003 63c0 	and.w	r3, r3, #100663296	; 0x6000000
 8001886:	3a01      	subs	r2, #1
 8001888:	ebb3 6f42 	cmp.w	r3, r2, lsl #25
 800188c:	d045      	beq.n	800191a <HAL_RCC_OscConfig+0x4d6>
 800188e:	2e0c      	cmp	r6, #12
 8001890:	f43f addc 	beq.w	800144c <HAL_RCC_OscConfig+0x8>
 8001894:	6823      	ldr	r3, [r4, #0]
 8001896:	015b      	lsls	r3, r3, #5
 8001898:	f53f add8 	bmi.w	800144c <HAL_RCC_OscConfig+0x8>
 800189c:	6823      	ldr	r3, [r4, #0]
 800189e:	f023 7380 	bic.w	r3, r3, #16777216	; 0x1000000
 80018a2:	6023      	str	r3, [r4, #0]
 80018a4:	f7fe fe14 	bl	80004d0 <HAL_GetTick>
 80018a8:	4606      	mov	r6, r0
 80018aa:	6823      	ldr	r3, [r4, #0]
 80018ac:	019f      	lsls	r7, r3, #6
 80018ae:	d42e      	bmi.n	800190e <HAL_RCC_OscConfig+0x4ca>
 80018b0:	68e2      	ldr	r2, [r4, #12]
 80018b2:	4b38      	ldr	r3, [pc, #224]	; (8001994 <HAL_RCC_OscConfig+0x550>)
 80018b4:	4013      	ands	r3, r2
 80018b6:	6aea      	ldr	r2, [r5, #44]	; 0x2c
 80018b8:	4313      	orrs	r3, r2
 80018ba:	6b6a      	ldr	r2, [r5, #52]	; 0x34
 80018bc:	ea43 2302 	orr.w	r3, r3, r2, lsl #8
 80018c0:	6baa      	ldr	r2, [r5, #56]	; 0x38
 80018c2:	ea43 63c2 	orr.w	r3, r3, r2, lsl #27
 80018c6:	6b2a      	ldr	r2, [r5, #48]	; 0x30
 80018c8:	3a01      	subs	r2, #1
 80018ca:	ea43 1302 	orr.w	r3, r3, r2, lsl #4
 80018ce:	6bea      	ldr	r2, [r5, #60]	; 0x3c
 80018d0:	0852      	lsrs	r2, r2, #1
 80018d2:	3a01      	subs	r2, #1
 80018d4:	ea43 5342 	orr.w	r3, r3, r2, lsl #21
 80018d8:	6c2a      	ldr	r2, [r5, #64]	; 0x40
 80018da:	0852      	lsrs	r2, r2, #1
 80018dc:	3a01      	subs	r2, #1
 80018de:	ea43 6342 	orr.w	r3, r3, r2, lsl #25
 80018e2:	60e3      	str	r3, [r4, #12]
 80018e4:	6823      	ldr	r3, [r4, #0]
 80018e6:	f043 7380 	orr.w	r3, r3, #16777216	; 0x1000000
 80018ea:	6023      	str	r3, [r4, #0]
 80018ec:	68e3      	ldr	r3, [r4, #12]
 80018ee:	f043 7380 	orr.w	r3, r3, #16777216	; 0x1000000
 80018f2:	60e3      	str	r3, [r4, #12]
 80018f4:	f7fe fdec 	bl	80004d0 <HAL_GetTick>
 80018f8:	4605      	mov	r5, r0
 80018fa:	6823      	ldr	r3, [r4, #0]
 80018fc:	019e      	lsls	r6, r3, #6
 80018fe:	f53f ae3d 	bmi.w	800157c <HAL_RCC_OscConfig+0x138>
 8001902:	f7fe fde5 	bl	80004d0 <HAL_GetTick>
 8001906:	1b40      	subs	r0, r0, r5
 8001908:	2802      	cmp	r0, #2
 800190a:	d9f6      	bls.n	80018fa <HAL_RCC_OscConfig+0x4b6>
 800190c:	e63e      	b.n	800158c <HAL_RCC_OscConfig+0x148>
 800190e:	f7fe fddf 	bl	80004d0 <HAL_GetTick>
 8001912:	1b80      	subs	r0, r0, r6
 8001914:	2802      	cmp	r0, #2
 8001916:	d9c8      	bls.n	80018aa <HAL_RCC_OscConfig+0x466>
 8001918:	e638      	b.n	800158c <HAL_RCC_OscConfig+0x148>
 800191a:	6823      	ldr	r3, [r4, #0]
 800191c:	0198      	lsls	r0, r3, #6
 800191e:	f53f ae2d 	bmi.w	800157c <HAL_RCC_OscConfig+0x138>
 8001922:	6823      	ldr	r3, [r4, #0]
 8001924:	f043 7380 	orr.w	r3, r3, #16777216	; 0x1000000
 8001928:	6023      	str	r3, [r4, #0]
 800192a:	68e3      	ldr	r3, [r4, #12]
 800192c:	f043 7380 	orr.w	r3, r3, #16777216	; 0x1000000
 8001930:	60e3      	str	r3, [r4, #12]
 8001932:	f7fe fdcd 	bl	80004d0 <HAL_GetTick>
 8001936:	4605      	mov	r5, r0
 8001938:	6823      	ldr	r3, [r4, #0]
 800193a:	0199      	lsls	r1, r3, #6
 800193c:	f53f ae1e 	bmi.w	800157c <HAL_RCC_OscConfig+0x138>
 8001940:	f7fe fdc6 	bl	80004d0 <HAL_GetTick>
 8001944:	1b40      	subs	r0, r0, r5
 8001946:	2802      	cmp	r0, #2
 8001948:	d9f6      	bls.n	8001938 <HAL_RCC_OscConfig+0x4f4>
 800194a:	e61f      	b.n	800158c <HAL_RCC_OscConfig+0x148>
 800194c:	2e0c      	cmp	r6, #12
 800194e:	f43f ad7d 	beq.w	800144c <HAL_RCC_OscConfig+0x8>
 8001952:	6823      	ldr	r3, [r4, #0]
 8001954:	f023 7380 	bic.w	r3, r3, #16777216	; 0x1000000
 8001958:	6023      	str	r3, [r4, #0]
 800195a:	6823      	ldr	r3, [r4, #0]
 800195c:	011a      	lsls	r2, r3, #4
 800195e:	bf5e      	ittt	pl
 8001960:	68e3      	ldrpl	r3, [r4, #12]
 8001962:	f023 0303 	bicpl.w	r3, r3, #3
 8001966:	60e3      	strpl	r3, [r4, #12]
 8001968:	68e3      	ldr	r3, [r4, #12]
 800196a:	f023 7388 	bic.w	r3, r3, #17825792	; 0x1100000
 800196e:	f423 3380 	bic.w	r3, r3, #65536	; 0x10000
 8001972:	60e3      	str	r3, [r4, #12]
 8001974:	f7fe fdac 	bl	80004d0 <HAL_GetTick>
 8001978:	4605      	mov	r5, r0
 800197a:	6823      	ldr	r3, [r4, #0]
 800197c:	019b      	lsls	r3, r3, #6
 800197e:	f57f adfd 	bpl.w	800157c <HAL_RCC_OscConfig+0x138>
 8001982:	f7fe fda5 	bl	80004d0 <HAL_GetTick>
 8001986:	1b40      	subs	r0, r0, r5
 8001988:	2802      	cmp	r0, #2
 800198a:	d9f6      	bls.n	800197a <HAL_RCC_OscConfig+0x536>
 800198c:	e5fe      	b.n	800158c <HAL_RCC_OscConfig+0x148>
 800198e:	bf00      	nop
 8001990:	40007000 	.word	0x40007000
 8001994:	019d808c 	.word	0x019d808c

08001998 <HAL_RCC_ClockConfig>:
 8001998:	e92d 41f0 	stmdb	sp!, {r4, r5, r6, r7, r8, lr}
 800199c:	460e      	mov	r6, r1
 800199e:	4604      	mov	r4, r0
 80019a0:	b910      	cbnz	r0, 80019a8 <HAL_RCC_ClockConfig+0x10>
 80019a2:	2001      	movs	r0, #1
 80019a4:	e8bd 81f0 	ldmia.w	sp!, {r4, r5, r6, r7, r8, pc}
 80019a8:	4a40      	ldr	r2, [pc, #256]	; (8001aac <HAL_RCC_ClockConfig+0x114>)
 80019aa:	6813      	ldr	r3, [r2, #0]
 80019ac:	f003 0307 	and.w	r3, r3, #7
 80019b0:	428b      	cmp	r3, r1
 80019b2:	d32a      	bcc.n	8001a0a <HAL_RCC_ClockConfig+0x72>
 80019b4:	6823      	ldr	r3, [r4, #0]
 80019b6:	07d9      	lsls	r1, r3, #31
 80019b8:	d432      	bmi.n	8001a20 <HAL_RCC_ClockConfig+0x88>
 80019ba:	6821      	ldr	r1, [r4, #0]
 80019bc:	078a      	lsls	r2, r1, #30
 80019be:	d45b      	bmi.n	8001a78 <HAL_RCC_ClockConfig+0xe0>
 80019c0:	4a3a      	ldr	r2, [pc, #232]	; (8001aac <HAL_RCC_ClockConfig+0x114>)
 80019c2:	6813      	ldr	r3, [r2, #0]
 80019c4:	f003 0307 	and.w	r3, r3, #7
 80019c8:	42b3      	cmp	r3, r6
 80019ca:	d85d      	bhi.n	8001a88 <HAL_RCC_ClockConfig+0xf0>
 80019cc:	f011 0f04 	tst.w	r1, #4
 80019d0:	4d37      	ldr	r5, [pc, #220]	; (8001ab0 <HAL_RCC_ClockConfig+0x118>)
 80019d2:	d164      	bne.n	8001a9e <HAL_RCC_ClockConfig+0x106>
 80019d4:	070b      	lsls	r3, r1, #28
 80019d6:	d506      	bpl.n	80019e6 <HAL_RCC_ClockConfig+0x4e>
 80019d8:	68ab      	ldr	r3, [r5, #8]
 80019da:	6922      	ldr	r2, [r4, #16]
 80019dc:	f423 5360 	bic.w	r3, r3, #14336	; 0x3800
 80019e0:	ea43 03c2 	orr.w	r3, r3, r2, lsl #3
 80019e4:	60ab      	str	r3, [r5, #8]
 80019e6:	f7ff fcdf 	bl	80013a8 <HAL_RCC_GetSysClockFreq>
 80019ea:	68ab      	ldr	r3, [r5, #8]
 80019ec:	4a31      	ldr	r2, [pc, #196]	; (8001ab4 <HAL_RCC_ClockConfig+0x11c>)
 80019ee:	f3c3 1303 	ubfx	r3, r3, #4, #4
 80019f2:	e8bd 41f0 	ldmia.w	sp!, {r4, r5, r6, r7, r8, lr}
 80019f6:	5cd3      	ldrb	r3, [r2, r3]
 80019f8:	f003 031f 	and.w	r3, r3, #31
 80019fc:	40d8      	lsrs	r0, r3
 80019fe:	4b2e      	ldr	r3, [pc, #184]	; (8001ab8 <HAL_RCC_ClockConfig+0x120>)
 8001a00:	6018      	str	r0, [r3, #0]
 8001a02:	4b2e      	ldr	r3, [pc, #184]	; (8001abc <HAL_RCC_ClockConfig+0x124>)
 8001a04:	6818      	ldr	r0, [r3, #0]
 8001a06:	f7fe bd21 	b.w	800044c <HAL_InitTick>
 8001a0a:	6813      	ldr	r3, [r2, #0]
 8001a0c:	f023 0307 	bic.w	r3, r3, #7
 8001a10:	430b      	orrs	r3, r1
 8001a12:	6013      	str	r3, [r2, #0]
 8001a14:	6813      	ldr	r3, [r2, #0]
 8001a16:	f003 0307 	and.w	r3, r3, #7
 8001a1a:	428b      	cmp	r3, r1
 8001a1c:	d1c1      	bne.n	80019a2 <HAL_RCC_ClockConfig+0xa>
 8001a1e:	e7c9      	b.n	80019b4 <HAL_RCC_ClockConfig+0x1c>
 8001a20:	6862      	ldr	r2, [r4, #4]
 8001a22:	4d23      	ldr	r5, [pc, #140]	; (8001ab0 <HAL_RCC_ClockConfig+0x118>)
 8001a24:	2a03      	cmp	r2, #3
 8001a26:	682b      	ldr	r3, [r5, #0]
 8001a28:	d11a      	bne.n	8001a60 <HAL_RCC_ClockConfig+0xc8>
 8001a2a:	f013 7f00 	tst.w	r3, #33554432	; 0x2000000
 8001a2e:	d0b8      	beq.n	80019a2 <HAL_RCC_ClockConfig+0xa>
 8001a30:	68ab      	ldr	r3, [r5, #8]
 8001a32:	f023 0303 	bic.w	r3, r3, #3
 8001a36:	4313      	orrs	r3, r2
 8001a38:	60ab      	str	r3, [r5, #8]
 8001a3a:	f7fe fd49 	bl	80004d0 <HAL_GetTick>
 8001a3e:	f241 3888 	movw	r8, #5000	; 0x1388
 8001a42:	4607      	mov	r7, r0
 8001a44:	68ab      	ldr	r3, [r5, #8]
 8001a46:	6862      	ldr	r2, [r4, #4]
 8001a48:	f003 030c 	and.w	r3, r3, #12
 8001a4c:	ebb3 0f82 	cmp.w	r3, r2, lsl #2
 8001a50:	d0b3      	beq.n	80019ba <HAL_RCC_ClockConfig+0x22>
 8001a52:	f7fe fd3d 	bl	80004d0 <HAL_GetTick>
 8001a56:	1bc0      	subs	r0, r0, r7
 8001a58:	4540      	cmp	r0, r8
 8001a5a:	d9f3      	bls.n	8001a44 <HAL_RCC_ClockConfig+0xac>
 8001a5c:	2003      	movs	r0, #3
 8001a5e:	e7a1      	b.n	80019a4 <HAL_RCC_ClockConfig+0xc>
 8001a60:	2a02      	cmp	r2, #2
 8001a62:	d102      	bne.n	8001a6a <HAL_RCC_ClockConfig+0xd2>
 8001a64:	f413 3f00 	tst.w	r3, #131072	; 0x20000
 8001a68:	e7e1      	b.n	8001a2e <HAL_RCC_ClockConfig+0x96>
 8001a6a:	b912      	cbnz	r2, 8001a72 <HAL_RCC_ClockConfig+0xda>
 8001a6c:	f013 0f02 	tst.w	r3, #2
 8001a70:	e7dd      	b.n	8001a2e <HAL_RCC_ClockConfig+0x96>
 8001a72:	f413 6f80 	tst.w	r3, #1024	; 0x400
 8001a76:	e7da      	b.n	8001a2e <HAL_RCC_ClockConfig+0x96>
 8001a78:	4a0d      	ldr	r2, [pc, #52]	; (8001ab0 <HAL_RCC_ClockConfig+0x118>)
 8001a7a:	68a0      	ldr	r0, [r4, #8]
 8001a7c:	6893      	ldr	r3, [r2, #8]
 8001a7e:	f023 03f0 	bic.w	r3, r3, #240	; 0xf0
 8001a82:	4303      	orrs	r3, r0
 8001a84:	6093      	str	r3, [r2, #8]
 8001a86:	e79b      	b.n	80019c0 <HAL_RCC_ClockConfig+0x28>
 8001a88:	6813      	ldr	r3, [r2, #0]
 8001a8a:	f023 0307 	bic.w	r3, r3, #7
 8001a8e:	4333      	orrs	r3, r6
 8001a90:	6013      	str	r3, [r2, #0]
 8001a92:	6813      	ldr	r3, [r2, #0]
 8001a94:	f003 0307 	and.w	r3, r3, #7
 8001a98:	42b3      	cmp	r3, r6
 8001a9a:	d182      	bne.n	80019a2 <HAL_RCC_ClockConfig+0xa>
 8001a9c:	e796      	b.n	80019cc <HAL_RCC_ClockConfig+0x34>
 8001a9e:	68ab      	ldr	r3, [r5, #8]
 8001aa0:	68e2      	ldr	r2, [r4, #12]
 8001aa2:	f423 63e0 	bic.w	r3, r3, #1792	; 0x700
 8001aa6:	4313      	orrs	r3, r2
 8001aa8:	60ab      	str	r3, [r5, #8]
 8001aaa:	e793      	b.n	80019d4 <HAL_RCC_ClockConfig+0x3c>
 8001aac:	40022000 	.word	0x40022000
 8001ab0:	40021000 	.word	0x40021000
 8001ab4:	080050a4 	.word	0x080050a4
 8001ab8:	20000000 	.word	0x20000000
 8001abc:	20000008 	.word	0x20000008

08001ac0 <HAL_RCC_GetHCLKFreq>:
 8001ac0:	4b01      	ldr	r3, [pc, #4]	; (8001ac8 <HAL_RCC_GetHCLKFreq+0x8>)
 8001ac2:	6818      	ldr	r0, [r3, #0]
 8001ac4:	4770      	bx	lr
 8001ac6:	bf00      	nop
 8001ac8:	20000000 	.word	0x20000000

08001acc <RCCEx_PLLSAI1_Config>:
 8001acc:	b5f8      	push	{r3, r4, r5, r6, r7, lr}
 8001ace:	4b43      	ldr	r3, [pc, #268]	; (8001bdc <RCCEx_PLLSAI1_Config+0x110>)
 8001ad0:	68da      	ldr	r2, [r3, #12]
 8001ad2:	f012 0f03 	tst.w	r2, #3
 8001ad6:	4605      	mov	r5, r0
 8001ad8:	460e      	mov	r6, r1
 8001ada:	6800      	ldr	r0, [r0, #0]
 8001adc:	461c      	mov	r4, r3
 8001ade:	d028      	beq.n	8001b32 <RCCEx_PLLSAI1_Config+0x66>
 8001ae0:	68da      	ldr	r2, [r3, #12]
 8001ae2:	f002 0203 	and.w	r2, r2, #3
 8001ae6:	4282      	cmp	r2, r0
 8001ae8:	d13a      	bne.n	8001b60 <RCCEx_PLLSAI1_Config+0x94>
 8001aea:	2a00      	cmp	r2, #0
 8001aec:	d038      	beq.n	8001b60 <RCCEx_PLLSAI1_Config+0x94>
 8001aee:	68db      	ldr	r3, [r3, #12]
 8001af0:	686a      	ldr	r2, [r5, #4]
 8001af2:	f3c3 1302 	ubfx	r3, r3, #4, #3
 8001af6:	3301      	adds	r3, #1
 8001af8:	4293      	cmp	r3, r2
 8001afa:	d131      	bne.n	8001b60 <RCCEx_PLLSAI1_Config+0x94>
 8001afc:	6823      	ldr	r3, [r4, #0]
 8001afe:	f023 6380 	bic.w	r3, r3, #67108864	; 0x4000000
 8001b02:	6023      	str	r3, [r4, #0]
 8001b04:	f7fe fce4 	bl	80004d0 <HAL_GetTick>
 8001b08:	4607      	mov	r7, r0
 8001b0a:	6823      	ldr	r3, [r4, #0]
 8001b0c:	011a      	lsls	r2, r3, #4
 8001b0e:	d430      	bmi.n	8001b72 <RCCEx_PLLSAI1_Config+0xa6>
 8001b10:	68ab      	ldr	r3, [r5, #8]
 8001b12:	0218      	lsls	r0, r3, #8
 8001b14:	b3a6      	cbz	r6, 8001b80 <RCCEx_PLLSAI1_Config+0xb4>
 8001b16:	2e01      	cmp	r6, #1
 8001b18:	d14c      	bne.n	8001bb4 <RCCEx_PLLSAI1_Config+0xe8>
 8001b1a:	692a      	ldr	r2, [r5, #16]
 8001b1c:	6921      	ldr	r1, [r4, #16]
 8001b1e:	0852      	lsrs	r2, r2, #1
 8001b20:	1e53      	subs	r3, r2, #1
 8001b22:	f421 02c0 	bic.w	r2, r1, #6291456	; 0x600000
 8001b26:	f422 42fe 	bic.w	r2, r2, #32512	; 0x7f00
 8001b2a:	4302      	orrs	r2, r0
 8001b2c:	ea42 5243 	orr.w	r2, r2, r3, lsl #21
 8001b30:	e02f      	b.n	8001b92 <RCCEx_PLLSAI1_Config+0xc6>
 8001b32:	2802      	cmp	r0, #2
 8001b34:	d010      	beq.n	8001b58 <RCCEx_PLLSAI1_Config+0x8c>
 8001b36:	2803      	cmp	r0, #3
 8001b38:	d014      	beq.n	8001b64 <RCCEx_PLLSAI1_Config+0x98>
 8001b3a:	2801      	cmp	r0, #1
 8001b3c:	d110      	bne.n	8001b60 <RCCEx_PLLSAI1_Config+0x94>
 8001b3e:	681b      	ldr	r3, [r3, #0]
 8001b40:	079f      	lsls	r7, r3, #30
 8001b42:	d51c      	bpl.n	8001b7e <RCCEx_PLLSAI1_Config+0xb2>
 8001b44:	68e3      	ldr	r3, [r4, #12]
 8001b46:	686a      	ldr	r2, [r5, #4]
 8001b48:	f023 0373 	bic.w	r3, r3, #115	; 0x73
 8001b4c:	3a01      	subs	r2, #1
 8001b4e:	4318      	orrs	r0, r3
 8001b50:	ea40 1002 	orr.w	r0, r0, r2, lsl #4
 8001b54:	60e0      	str	r0, [r4, #12]
 8001b56:	e7d1      	b.n	8001afc <RCCEx_PLLSAI1_Config+0x30>
 8001b58:	681b      	ldr	r3, [r3, #0]
 8001b5a:	f413 6f80 	tst.w	r3, #1024	; 0x400
 8001b5e:	d1f1      	bne.n	8001b44 <RCCEx_PLLSAI1_Config+0x78>
 8001b60:	2001      	movs	r0, #1
 8001b62:	e00c      	b.n	8001b7e <RCCEx_PLLSAI1_Config+0xb2>
 8001b64:	681a      	ldr	r2, [r3, #0]
 8001b66:	0391      	lsls	r1, r2, #14
 8001b68:	d4ec      	bmi.n	8001b44 <RCCEx_PLLSAI1_Config+0x78>
 8001b6a:	681b      	ldr	r3, [r3, #0]
 8001b6c:	f413 2f80 	tst.w	r3, #262144	; 0x40000
 8001b70:	e7f5      	b.n	8001b5e <RCCEx_PLLSAI1_Config+0x92>
 8001b72:	f7fe fcad 	bl	80004d0 <HAL_GetTick>
 8001b76:	1bc0      	subs	r0, r0, r7
 8001b78:	2802      	cmp	r0, #2
 8001b7a:	d9c6      	bls.n	8001b0a <RCCEx_PLLSAI1_Config+0x3e>
 8001b7c:	2003      	movs	r0, #3
 8001b7e:	bdf8      	pop	{r3, r4, r5, r6, r7, pc}
 8001b80:	6923      	ldr	r3, [r4, #16]
 8001b82:	68ea      	ldr	r2, [r5, #12]
 8001b84:	ea40 62c2 	orr.w	r2, r0, r2, lsl #27
 8001b88:	f023 4078 	bic.w	r0, r3, #4160749568	; 0xf8000000
 8001b8c:	f420 40fe 	bic.w	r0, r0, #32512	; 0x7f00
 8001b90:	4302      	orrs	r2, r0
 8001b92:	6122      	str	r2, [r4, #16]
 8001b94:	6823      	ldr	r3, [r4, #0]
 8001b96:	f043 6380 	orr.w	r3, r3, #67108864	; 0x4000000
 8001b9a:	6023      	str	r3, [r4, #0]
 8001b9c:	f7fe fc98 	bl	80004d0 <HAL_GetTick>
 8001ba0:	4606      	mov	r6, r0
 8001ba2:	6823      	ldr	r3, [r4, #0]
 8001ba4:	011b      	lsls	r3, r3, #4
 8001ba6:	d512      	bpl.n	8001bce <RCCEx_PLLSAI1_Config+0x102>
 8001ba8:	6923      	ldr	r3, [r4, #16]
 8001baa:	69aa      	ldr	r2, [r5, #24]
 8001bac:	4313      	orrs	r3, r2
 8001bae:	6123      	str	r3, [r4, #16]
 8001bb0:	2000      	movs	r0, #0
 8001bb2:	e7e4      	b.n	8001b7e <RCCEx_PLLSAI1_Config+0xb2>
 8001bb4:	696b      	ldr	r3, [r5, #20]
 8001bb6:	6922      	ldr	r2, [r4, #16]
 8001bb8:	085b      	lsrs	r3, r3, #1
 8001bba:	1e59      	subs	r1, r3, #1
 8001bbc:	f022 63c0 	bic.w	r3, r2, #100663296	; 0x6000000
 8001bc0:	f423 43fe 	bic.w	r3, r3, #32512	; 0x7f00
 8001bc4:	4303      	orrs	r3, r0
 8001bc6:	ea43 6341 	orr.w	r3, r3, r1, lsl #25
 8001bca:	6123      	str	r3, [r4, #16]
 8001bcc:	e7e2      	b.n	8001b94 <RCCEx_PLLSAI1_Config+0xc8>
 8001bce:	f7fe fc7f 	bl	80004d0 <HAL_GetTick>
 8001bd2:	1b80      	subs	r0, r0, r6
 8001bd4:	2802      	cmp	r0, #2
 8001bd6:	d9e4      	bls.n	8001ba2 <RCCEx_PLLSAI1_Config+0xd6>
 8001bd8:	e7d0      	b.n	8001b7c <RCCEx_PLLSAI1_Config+0xb0>
 8001bda:	bf00      	nop
 8001bdc:	40021000 	.word	0x40021000

08001be0 <HAL_RCCEx_PeriphCLKConfig>:
 8001be0:	e92d 43f7 	stmdb	sp!, {r0, r1, r2, r4, r5, r6, r7, r8, r9, lr}
 8001be4:	6805      	ldr	r5, [r0, #0]
 8001be6:	f415 6500 	ands.w	r5, r5, #2048	; 0x800
 8001bea:	4604      	mov	r4, r0
 8001bec:	d00e      	beq.n	8001c0c <HAL_RCCEx_PeriphCLKConfig+0x2c>
 8001bee:	6bc1      	ldr	r1, [r0, #60]	; 0x3c
 8001bf0:	f5b1 0f00 	cmp.w	r1, #8388608	; 0x800000
 8001bf4:	d052      	beq.n	8001c9c <HAL_RCCEx_PeriphCLKConfig+0xbc>
 8001bf6:	f5b1 0f40 	cmp.w	r1, #12582912	; 0xc00000
 8001bfa:	d054      	beq.n	8001ca6 <HAL_RCCEx_PeriphCLKConfig+0xc6>
 8001bfc:	2900      	cmp	r1, #0
 8001bfe:	d15d      	bne.n	8001cbc <HAL_RCCEx_PeriphCLKConfig+0xdc>
 8001c00:	3004      	adds	r0, #4
 8001c02:	f7ff ff63 	bl	8001acc <RCCEx_PLLSAI1_Config>
 8001c06:	4605      	mov	r5, r0
 8001c08:	2800      	cmp	r0, #0
 8001c0a:	d04c      	beq.n	8001ca6 <HAL_RCCEx_PeriphCLKConfig+0xc6>
 8001c0c:	6823      	ldr	r3, [r4, #0]
 8001c0e:	039e      	lsls	r6, r3, #14
 8001c10:	d564      	bpl.n	8001cdc <HAL_RCCEx_PeriphCLKConfig+0xfc>
 8001c12:	4e92      	ldr	r6, [pc, #584]	; (8001e5c <HAL_RCCEx_PeriphCLKConfig+0x27c>)
 8001c14:	6db3      	ldr	r3, [r6, #88]	; 0x58
 8001c16:	00d8      	lsls	r0, r3, #3
 8001c18:	d452      	bmi.n	8001cc0 <HAL_RCCEx_PeriphCLKConfig+0xe0>
 8001c1a:	6db3      	ldr	r3, [r6, #88]	; 0x58
 8001c1c:	f043 5380 	orr.w	r3, r3, #268435456	; 0x10000000
 8001c20:	65b3      	str	r3, [r6, #88]	; 0x58
 8001c22:	6db3      	ldr	r3, [r6, #88]	; 0x58
 8001c24:	f003 5380 	and.w	r3, r3, #268435456	; 0x10000000
 8001c28:	9301      	str	r3, [sp, #4]
 8001c2a:	9b01      	ldr	r3, [sp, #4]
 8001c2c:	2701      	movs	r7, #1
 8001c2e:	f8df 8230 	ldr.w	r8, [pc, #560]	; 8001e60 <HAL_RCCEx_PeriphCLKConfig+0x280>
 8001c32:	f8d8 3000 	ldr.w	r3, [r8]
 8001c36:	f443 7380 	orr.w	r3, r3, #256	; 0x100
 8001c3a:	f8c8 3000 	str.w	r3, [r8]
 8001c3e:	f7fe fc47 	bl	80004d0 <HAL_GetTick>
 8001c42:	4681      	mov	r9, r0
 8001c44:	f8d8 3000 	ldr.w	r3, [r8]
 8001c48:	05d9      	lsls	r1, r3, #23
 8001c4a:	d53b      	bpl.n	8001cc4 <HAL_RCCEx_PeriphCLKConfig+0xe4>
 8001c4c:	2d00      	cmp	r5, #0
 8001c4e:	d140      	bne.n	8001cd2 <HAL_RCCEx_PeriphCLKConfig+0xf2>
 8001c50:	f8d6 3090 	ldr.w	r3, [r6, #144]	; 0x90
 8001c54:	f413 7340 	ands.w	r3, r3, #768	; 0x300
 8001c58:	d014      	beq.n	8001c84 <HAL_RCCEx_PeriphCLKConfig+0xa4>
 8001c5a:	6d22      	ldr	r2, [r4, #80]	; 0x50
 8001c5c:	429a      	cmp	r2, r3
 8001c5e:	d011      	beq.n	8001c84 <HAL_RCCEx_PeriphCLKConfig+0xa4>
 8001c60:	f8d6 3090 	ldr.w	r3, [r6, #144]	; 0x90
 8001c64:	f8d6 2090 	ldr.w	r2, [r6, #144]	; 0x90
 8001c68:	f442 3280 	orr.w	r2, r2, #65536	; 0x10000
 8001c6c:	f8c6 2090 	str.w	r2, [r6, #144]	; 0x90
 8001c70:	f8d6 2090 	ldr.w	r2, [r6, #144]	; 0x90
 8001c74:	f423 7340 	bic.w	r3, r3, #768	; 0x300
 8001c78:	f422 3280 	bic.w	r2, r2, #65536	; 0x10000
 8001c7c:	f8c6 2090 	str.w	r2, [r6, #144]	; 0x90
 8001c80:	f8c6 3090 	str.w	r3, [r6, #144]	; 0x90
 8001c84:	07da      	lsls	r2, r3, #31
 8001c86:	f100 80c2 	bmi.w	8001e0e <HAL_RCCEx_PeriphCLKConfig+0x22e>
 8001c8a:	f8d6 3090 	ldr.w	r3, [r6, #144]	; 0x90
 8001c8e:	6d22      	ldr	r2, [r4, #80]	; 0x50
 8001c90:	f423 7340 	bic.w	r3, r3, #768	; 0x300
 8001c94:	4313      	orrs	r3, r2
 8001c96:	f8c6 3090 	str.w	r3, [r6, #144]	; 0x90
 8001c9a:	e01a      	b.n	8001cd2 <HAL_RCCEx_PeriphCLKConfig+0xf2>
 8001c9c:	4a6f      	ldr	r2, [pc, #444]	; (8001e5c <HAL_RCCEx_PeriphCLKConfig+0x27c>)
 8001c9e:	68d3      	ldr	r3, [r2, #12]
 8001ca0:	f443 3380 	orr.w	r3, r3, #65536	; 0x10000
 8001ca4:	60d3      	str	r3, [r2, #12]
 8001ca6:	4a6d      	ldr	r2, [pc, #436]	; (8001e5c <HAL_RCCEx_PeriphCLKConfig+0x27c>)
 8001ca8:	6be1      	ldr	r1, [r4, #60]	; 0x3c
 8001caa:	f8d2 3088 	ldr.w	r3, [r2, #136]	; 0x88
 8001cae:	f423 0340 	bic.w	r3, r3, #12582912	; 0xc00000
 8001cb2:	430b      	orrs	r3, r1
 8001cb4:	f8c2 3088 	str.w	r3, [r2, #136]	; 0x88
 8001cb8:	2500      	movs	r5, #0
 8001cba:	e7a7      	b.n	8001c0c <HAL_RCCEx_PeriphCLKConfig+0x2c>
 8001cbc:	2501      	movs	r5, #1
 8001cbe:	e7a5      	b.n	8001c0c <HAL_RCCEx_PeriphCLKConfig+0x2c>
 8001cc0:	2700      	movs	r7, #0
 8001cc2:	e7b4      	b.n	8001c2e <HAL_RCCEx_PeriphCLKConfig+0x4e>
 8001cc4:	f7fe fc04 	bl	80004d0 <HAL_GetTick>
 8001cc8:	eba0 0009 	sub.w	r0, r0, r9
 8001ccc:	2802      	cmp	r0, #2
 8001cce:	d9b9      	bls.n	8001c44 <HAL_RCCEx_PeriphCLKConfig+0x64>
 8001cd0:	2503      	movs	r5, #3
 8001cd2:	b11f      	cbz	r7, 8001cdc <HAL_RCCEx_PeriphCLKConfig+0xfc>
 8001cd4:	6db3      	ldr	r3, [r6, #88]	; 0x58
 8001cd6:	f023 5380 	bic.w	r3, r3, #268435456	; 0x10000000
 8001cda:	65b3      	str	r3, [r6, #88]	; 0x58
 8001cdc:	6823      	ldr	r3, [r4, #0]
 8001cde:	07df      	lsls	r7, r3, #31
 8001ce0:	d508      	bpl.n	8001cf4 <HAL_RCCEx_PeriphCLKConfig+0x114>
 8001ce2:	495e      	ldr	r1, [pc, #376]	; (8001e5c <HAL_RCCEx_PeriphCLKConfig+0x27c>)
 8001ce4:	6a20      	ldr	r0, [r4, #32]
 8001ce6:	f8d1 2088 	ldr.w	r2, [r1, #136]	; 0x88
 8001cea:	f022 0203 	bic.w	r2, r2, #3
 8001cee:	4302      	orrs	r2, r0
 8001cf0:	f8c1 2088 	str.w	r2, [r1, #136]	; 0x88
 8001cf4:	079e      	lsls	r6, r3, #30
 8001cf6:	d508      	bpl.n	8001d0a <HAL_RCCEx_PeriphCLKConfig+0x12a>
 8001cf8:	4958      	ldr	r1, [pc, #352]	; (8001e5c <HAL_RCCEx_PeriphCLKConfig+0x27c>)
 8001cfa:	6a60      	ldr	r0, [r4, #36]	; 0x24
 8001cfc:	f8d1 2088 	ldr.w	r2, [r1, #136]	; 0x88
 8001d00:	f022 020c 	bic.w	r2, r2, #12
 8001d04:	4302      	orrs	r2, r0
 8001d06:	f8c1 2088 	str.w	r2, [r1, #136]	; 0x88
 8001d0a:	0698      	lsls	r0, r3, #26
 8001d0c:	d508      	bpl.n	8001d20 <HAL_RCCEx_PeriphCLKConfig+0x140>
 8001d0e:	4953      	ldr	r1, [pc, #332]	; (8001e5c <HAL_RCCEx_PeriphCLKConfig+0x27c>)
 8001d10:	6aa0      	ldr	r0, [r4, #40]	; 0x28
 8001d12:	f8d1 2088 	ldr.w	r2, [r1, #136]	; 0x88
 8001d16:	f422 6240 	bic.w	r2, r2, #3072	; 0xc00
 8001d1a:	4302      	orrs	r2, r0
 8001d1c:	f8c1 2088 	str.w	r2, [r1, #136]	; 0x88
 8001d20:	0599      	lsls	r1, r3, #22
 8001d22:	d508      	bpl.n	8001d36 <HAL_RCCEx_PeriphCLKConfig+0x156>
 8001d24:	494d      	ldr	r1, [pc, #308]	; (8001e5c <HAL_RCCEx_PeriphCLKConfig+0x27c>)
 8001d26:	6b60      	ldr	r0, [r4, #52]	; 0x34
 8001d28:	f8d1 2088 	ldr.w	r2, [r1, #136]	; 0x88
 8001d2c:	f422 2240 	bic.w	r2, r2, #786432	; 0xc0000
 8001d30:	4302      	orrs	r2, r0
 8001d32:	f8c1 2088 	str.w	r2, [r1, #136]	; 0x88
 8001d36:	055a      	lsls	r2, r3, #21
 8001d38:	d508      	bpl.n	8001d4c <HAL_RCCEx_PeriphCLKConfig+0x16c>
 8001d3a:	4948      	ldr	r1, [pc, #288]	; (8001e5c <HAL_RCCEx_PeriphCLKConfig+0x27c>)
 8001d3c:	6ba0      	ldr	r0, [r4, #56]	; 0x38
 8001d3e:	f8d1 2088 	ldr.w	r2, [r1, #136]	; 0x88
 8001d42:	f422 1240 	bic.w	r2, r2, #3145728	; 0x300000
 8001d46:	4302      	orrs	r2, r0
 8001d48:	f8c1 2088 	str.w	r2, [r1, #136]	; 0x88
 8001d4c:	065f      	lsls	r7, r3, #25
 8001d4e:	d508      	bpl.n	8001d62 <HAL_RCCEx_PeriphCLKConfig+0x182>
 8001d50:	4942      	ldr	r1, [pc, #264]	; (8001e5c <HAL_RCCEx_PeriphCLKConfig+0x27c>)
 8001d52:	6ae0      	ldr	r0, [r4, #44]	; 0x2c
 8001d54:	f8d1 2088 	ldr.w	r2, [r1, #136]	; 0x88
 8001d58:	f422 5240 	bic.w	r2, r2, #12288	; 0x3000
 8001d5c:	4302      	orrs	r2, r0
 8001d5e:	f8c1 2088 	str.w	r2, [r1, #136]	; 0x88
 8001d62:	05de      	lsls	r6, r3, #23
 8001d64:	d508      	bpl.n	8001d78 <HAL_RCCEx_PeriphCLKConfig+0x198>
 8001d66:	493d      	ldr	r1, [pc, #244]	; (8001e5c <HAL_RCCEx_PeriphCLKConfig+0x27c>)
 8001d68:	6b20      	ldr	r0, [r4, #48]	; 0x30
 8001d6a:	f8d1 2088 	ldr.w	r2, [r1, #136]	; 0x88
 8001d6e:	f422 3240 	bic.w	r2, r2, #196608	; 0x30000
 8001d72:	4302      	orrs	r2, r0
 8001d74:	f8c1 2088 	str.w	r2, [r1, #136]	; 0x88
 8001d78:	0498      	lsls	r0, r3, #18
 8001d7a:	d50f      	bpl.n	8001d9c <HAL_RCCEx_PeriphCLKConfig+0x1bc>
 8001d7c:	4a37      	ldr	r2, [pc, #220]	; (8001e5c <HAL_RCCEx_PeriphCLKConfig+0x27c>)
 8001d7e:	6c21      	ldr	r1, [r4, #64]	; 0x40
 8001d80:	f8d2 3088 	ldr.w	r3, [r2, #136]	; 0x88
 8001d84:	f023 6340 	bic.w	r3, r3, #201326592	; 0xc000000
 8001d88:	430b      	orrs	r3, r1
 8001d8a:	f1b1 6f00 	cmp.w	r1, #134217728	; 0x8000000
 8001d8e:	f8c2 3088 	str.w	r3, [r2, #136]	; 0x88
 8001d92:	d14d      	bne.n	8001e30 <HAL_RCCEx_PeriphCLKConfig+0x250>
 8001d94:	68d3      	ldr	r3, [r2, #12]
 8001d96:	f443 1380 	orr.w	r3, r3, #1048576	; 0x100000
 8001d9a:	60d3      	str	r3, [r2, #12]
 8001d9c:	6823      	ldr	r3, [r4, #0]
 8001d9e:	0359      	lsls	r1, r3, #13
 8001da0:	d50f      	bpl.n	8001dc2 <HAL_RCCEx_PeriphCLKConfig+0x1e2>
 8001da2:	4a2e      	ldr	r2, [pc, #184]	; (8001e5c <HAL_RCCEx_PeriphCLKConfig+0x27c>)
 8001da4:	6c61      	ldr	r1, [r4, #68]	; 0x44
 8001da6:	f8d2 3088 	ldr.w	r3, [r2, #136]	; 0x88
 8001daa:	f023 6340 	bic.w	r3, r3, #201326592	; 0xc000000
 8001dae:	430b      	orrs	r3, r1
 8001db0:	f1b1 6f00 	cmp.w	r1, #134217728	; 0x8000000
 8001db4:	f8c2 3088 	str.w	r3, [r2, #136]	; 0x88
 8001db8:	d145      	bne.n	8001e46 <HAL_RCCEx_PeriphCLKConfig+0x266>
 8001dba:	68d3      	ldr	r3, [r2, #12]
 8001dbc:	f443 1380 	orr.w	r3, r3, #1048576	; 0x100000
 8001dc0:	60d3      	str	r3, [r2, #12]
 8001dc2:	6823      	ldr	r3, [r4, #0]
 8001dc4:	045a      	lsls	r2, r3, #17
 8001dc6:	d512      	bpl.n	8001dee <HAL_RCCEx_PeriphCLKConfig+0x20e>
 8001dc8:	4924      	ldr	r1, [pc, #144]	; (8001e5c <HAL_RCCEx_PeriphCLKConfig+0x27c>)
 8001dca:	6ca2      	ldr	r2, [r4, #72]	; 0x48
 8001dcc:	f8d1 3088 	ldr.w	r3, [r1, #136]	; 0x88
 8001dd0:	f023 5340 	bic.w	r3, r3, #805306368	; 0x30000000
 8001dd4:	4313      	orrs	r3, r2
 8001dd6:	f1b2 5f80 	cmp.w	r2, #268435456	; 0x10000000
 8001dda:	f8c1 3088 	str.w	r3, [r1, #136]	; 0x88
 8001dde:	d106      	bne.n	8001dee <HAL_RCCEx_PeriphCLKConfig+0x20e>
 8001de0:	2102      	movs	r1, #2
 8001de2:	1d20      	adds	r0, r4, #4
 8001de4:	f7ff fe72 	bl	8001acc <RCCEx_PLLSAI1_Config>
 8001de8:	2800      	cmp	r0, #0
 8001dea:	bf18      	it	ne
 8001dec:	4605      	movne	r5, r0
 8001dee:	6823      	ldr	r3, [r4, #0]
 8001df0:	041b      	lsls	r3, r3, #16
 8001df2:	d508      	bpl.n	8001e06 <HAL_RCCEx_PeriphCLKConfig+0x226>
 8001df4:	4a19      	ldr	r2, [pc, #100]	; (8001e5c <HAL_RCCEx_PeriphCLKConfig+0x27c>)
 8001df6:	6ce1      	ldr	r1, [r4, #76]	; 0x4c
 8001df8:	f8d2 3088 	ldr.w	r3, [r2, #136]	; 0x88
 8001dfc:	f023 4380 	bic.w	r3, r3, #1073741824	; 0x40000000
 8001e00:	430b      	orrs	r3, r1
 8001e02:	f8c2 3088 	str.w	r3, [r2, #136]	; 0x88
 8001e06:	4628      	mov	r0, r5
 8001e08:	b003      	add	sp, #12
 8001e0a:	e8bd 83f0 	ldmia.w	sp!, {r4, r5, r6, r7, r8, r9, pc}
 8001e0e:	f7fe fb5f 	bl	80004d0 <HAL_GetTick>
 8001e12:	f241 3988 	movw	r9, #5000	; 0x1388
 8001e16:	4680      	mov	r8, r0
 8001e18:	f8d6 3090 	ldr.w	r3, [r6, #144]	; 0x90
 8001e1c:	079b      	lsls	r3, r3, #30
 8001e1e:	f53f af34 	bmi.w	8001c8a <HAL_RCCEx_PeriphCLKConfig+0xaa>
 8001e22:	f7fe fb55 	bl	80004d0 <HAL_GetTick>
 8001e26:	eba0 0008 	sub.w	r0, r0, r8
 8001e2a:	4548      	cmp	r0, r9
 8001e2c:	d9f4      	bls.n	8001e18 <HAL_RCCEx_PeriphCLKConfig+0x238>
 8001e2e:	e74f      	b.n	8001cd0 <HAL_RCCEx_PeriphCLKConfig+0xf0>
 8001e30:	f1b1 6f80 	cmp.w	r1, #67108864	; 0x4000000
 8001e34:	d1b2      	bne.n	8001d9c <HAL_RCCEx_PeriphCLKConfig+0x1bc>
 8001e36:	2101      	movs	r1, #1
 8001e38:	1d20      	adds	r0, r4, #4
 8001e3a:	f7ff fe47 	bl	8001acc <RCCEx_PLLSAI1_Config>
 8001e3e:	2800      	cmp	r0, #0
 8001e40:	bf18      	it	ne
 8001e42:	4605      	movne	r5, r0
 8001e44:	e7aa      	b.n	8001d9c <HAL_RCCEx_PeriphCLKConfig+0x1bc>
 8001e46:	f1b1 6f80 	cmp.w	r1, #67108864	; 0x4000000
 8001e4a:	d1ba      	bne.n	8001dc2 <HAL_RCCEx_PeriphCLKConfig+0x1e2>
 8001e4c:	2101      	movs	r1, #1
 8001e4e:	1d20      	adds	r0, r4, #4
 8001e50:	f7ff fe3c 	bl	8001acc <RCCEx_PLLSAI1_Config>
 8001e54:	2800      	cmp	r0, #0
 8001e56:	bf18      	it	ne
 8001e58:	4605      	movne	r5, r0
 8001e5a:	e7b2      	b.n	8001dc2 <HAL_RCCEx_PeriphCLKConfig+0x1e2>
 8001e5c:	40021000 	.word	0x40021000
 8001e60:	40007000 	.word	0x40007000

08001e64 <HAL_RTC_AlarmIRQHandler>:
 8001e64:	4b13      	ldr	r3, [pc, #76]	; (8001eb4 <HAL_RTC_AlarmIRQHandler+0x50>)
 8001e66:	f44f 2280 	mov.w	r2, #262144	; 0x40000
 8001e6a:	b510      	push	{r4, lr}
 8001e6c:	615a      	str	r2, [r3, #20]
 8001e6e:	6802      	ldr	r2, [r0, #0]
 8001e70:	6893      	ldr	r3, [r2, #8]
 8001e72:	04d9      	lsls	r1, r3, #19
 8001e74:	4604      	mov	r4, r0
 8001e76:	d509      	bpl.n	8001e8c <HAL_RTC_AlarmIRQHandler+0x28>
 8001e78:	68d3      	ldr	r3, [r2, #12]
 8001e7a:	05db      	lsls	r3, r3, #23
 8001e7c:	d506      	bpl.n	8001e8c <HAL_RTC_AlarmIRQHandler+0x28>
 8001e7e:	68d3      	ldr	r3, [r2, #12]
 8001e80:	b2db      	uxtb	r3, r3
 8001e82:	f463 73c0 	orn	r3, r3, #384	; 0x180
 8001e86:	60d3      	str	r3, [r2, #12]
 8001e88:	f7fe f9a0 	bl	80001cc <HAL_RTC_AlarmAEventCallback>
 8001e8c:	6822      	ldr	r2, [r4, #0]
 8001e8e:	6893      	ldr	r3, [r2, #8]
 8001e90:	0499      	lsls	r1, r3, #18
 8001e92:	d50a      	bpl.n	8001eaa <HAL_RTC_AlarmIRQHandler+0x46>
 8001e94:	68d3      	ldr	r3, [r2, #12]
 8001e96:	059b      	lsls	r3, r3, #22
 8001e98:	d507      	bpl.n	8001eaa <HAL_RTC_AlarmIRQHandler+0x46>
 8001e9a:	68d3      	ldr	r3, [r2, #12]
 8001e9c:	b2db      	uxtb	r3, r3
 8001e9e:	f463 7320 	orn	r3, r3, #640	; 0x280
 8001ea2:	60d3      	str	r3, [r2, #12]
 8001ea4:	4620      	mov	r0, r4
 8001ea6:	f000 faa9 	bl	80023fc <HAL_RTCEx_AlarmBEventCallback>
 8001eaa:	2301      	movs	r3, #1
 8001eac:	f884 3021 	strb.w	r3, [r4, #33]	; 0x21
 8001eb0:	bd10      	pop	{r4, pc}
 8001eb2:	bf00      	nop
 8001eb4:	40010400 	.word	0x40010400

08001eb8 <HAL_RTC_WaitForSynchro>:
 8001eb8:	6802      	ldr	r2, [r0, #0]
 8001eba:	b538      	push	{r3, r4, r5, lr}
 8001ebc:	68d3      	ldr	r3, [r2, #12]
 8001ebe:	f023 03a0 	bic.w	r3, r3, #160	; 0xa0
 8001ec2:	60d3      	str	r3, [r2, #12]
 8001ec4:	4604      	mov	r4, r0
 8001ec6:	f7fe fb03 	bl	80004d0 <HAL_GetTick>
 8001eca:	4605      	mov	r5, r0
 8001ecc:	6823      	ldr	r3, [r4, #0]
 8001ece:	68db      	ldr	r3, [r3, #12]
 8001ed0:	069b      	lsls	r3, r3, #26
 8001ed2:	d501      	bpl.n	8001ed8 <HAL_RTC_WaitForSynchro+0x20>
 8001ed4:	2000      	movs	r0, #0
 8001ed6:	bd38      	pop	{r3, r4, r5, pc}
 8001ed8:	f7fe fafa 	bl	80004d0 <HAL_GetTick>
 8001edc:	1b40      	subs	r0, r0, r5
 8001ede:	f5b0 7f7a 	cmp.w	r0, #1000	; 0x3e8
 8001ee2:	d9f3      	bls.n	8001ecc <HAL_RTC_WaitForSynchro+0x14>
 8001ee4:	2003      	movs	r0, #3
 8001ee6:	e7f6      	b.n	8001ed6 <HAL_RTC_WaitForSynchro+0x1e>

08001ee8 <RTC_EnterInitMode>:
 8001ee8:	b5f8      	push	{r3, r4, r5, r6, r7, lr}
 8001eea:	6803      	ldr	r3, [r0, #0]
 8001eec:	68dc      	ldr	r4, [r3, #12]
 8001eee:	f014 0440 	ands.w	r4, r4, #64	; 0x40
 8001ef2:	4605      	mov	r5, r0
 8001ef4:	d118      	bne.n	8001f28 <RTC_EnterInitMode+0x40>
 8001ef6:	f04f 32ff 	mov.w	r2, #4294967295	; 0xffffffff
 8001efa:	60da      	str	r2, [r3, #12]
 8001efc:	f7fe fae8 	bl	80004d0 <HAL_GetTick>
 8001f00:	2703      	movs	r7, #3
 8001f02:	4606      	mov	r6, r0
 8001f04:	682b      	ldr	r3, [r5, #0]
 8001f06:	68db      	ldr	r3, [r3, #12]
 8001f08:	065b      	lsls	r3, r3, #25
 8001f0a:	d401      	bmi.n	8001f10 <RTC_EnterInitMode+0x28>
 8001f0c:	2c03      	cmp	r4, #3
 8001f0e:	d101      	bne.n	8001f14 <RTC_EnterInitMode+0x2c>
 8001f10:	4620      	mov	r0, r4
 8001f12:	bdf8      	pop	{r3, r4, r5, r6, r7, pc}
 8001f14:	f7fe fadc 	bl	80004d0 <HAL_GetTick>
 8001f18:	1b80      	subs	r0, r0, r6
 8001f1a:	f5b0 7f7a 	cmp.w	r0, #1000	; 0x3e8
 8001f1e:	bf84      	itt	hi
 8001f20:	f885 7021 	strbhi.w	r7, [r5, #33]	; 0x21
 8001f24:	2403      	movhi	r4, #3
 8001f26:	e7ed      	b.n	8001f04 <RTC_EnterInitMode+0x1c>
 8001f28:	2400      	movs	r4, #0
 8001f2a:	e7f1      	b.n	8001f10 <RTC_EnterInitMode+0x28>

08001f2c <RTC_ExitInitMode>:
 8001f2c:	b538      	push	{r3, r4, r5, lr}
 8001f2e:	4c0f      	ldr	r4, [pc, #60]	; (8001f6c <RTC_ExitInitMode+0x40>)
 8001f30:	68e3      	ldr	r3, [r4, #12]
 8001f32:	f023 0380 	bic.w	r3, r3, #128	; 0x80
 8001f36:	60e3      	str	r3, [r4, #12]
 8001f38:	68a3      	ldr	r3, [r4, #8]
 8001f3a:	069b      	lsls	r3, r3, #26
 8001f3c:	4605      	mov	r5, r0
 8001f3e:	d406      	bmi.n	8001f4e <RTC_ExitInitMode+0x22>
 8001f40:	f7ff ffba 	bl	8001eb8 <HAL_RTC_WaitForSynchro>
 8001f44:	b110      	cbz	r0, 8001f4c <RTC_ExitInitMode+0x20>
 8001f46:	2003      	movs	r0, #3
 8001f48:	f885 0021 	strb.w	r0, [r5, #33]	; 0x21
 8001f4c:	bd38      	pop	{r3, r4, r5, pc}
 8001f4e:	68a3      	ldr	r3, [r4, #8]
 8001f50:	f023 0320 	bic.w	r3, r3, #32
 8001f54:	60a3      	str	r3, [r4, #8]
 8001f56:	f7ff ffaf 	bl	8001eb8 <HAL_RTC_WaitForSynchro>
 8001f5a:	b110      	cbz	r0, 8001f62 <RTC_ExitInitMode+0x36>
 8001f5c:	2003      	movs	r0, #3
 8001f5e:	f885 0021 	strb.w	r0, [r5, #33]	; 0x21
 8001f62:	68a3      	ldr	r3, [r4, #8]
 8001f64:	f043 0320 	orr.w	r3, r3, #32
 8001f68:	60a3      	str	r3, [r4, #8]
 8001f6a:	e7ef      	b.n	8001f4c <RTC_ExitInitMode+0x20>
 8001f6c:	40002800 	.word	0x40002800

08001f70 <HAL_RTC_Init>:
 8001f70:	b538      	push	{r3, r4, r5, lr}
 8001f72:	4604      	mov	r4, r0
 8001f74:	2800      	cmp	r0, #0
 8001f76:	d03f      	beq.n	8001ff8 <HAL_RTC_Init+0x88>
 8001f78:	f890 3021 	ldrb.w	r3, [r0, #33]	; 0x21
 8001f7c:	f003 02ff 	and.w	r2, r3, #255	; 0xff
 8001f80:	b91b      	cbnz	r3, 8001f8a <HAL_RTC_Init+0x1a>
 8001f82:	f880 2020 	strb.w	r2, [r0, #32]
 8001f86:	f7fe f9b5 	bl	80002f4 <HAL_RTC_MspInit>
 8001f8a:	2302      	movs	r3, #2
 8001f8c:	f884 3021 	strb.w	r3, [r4, #33]	; 0x21
 8001f90:	6823      	ldr	r3, [r4, #0]
 8001f92:	22ca      	movs	r2, #202	; 0xca
 8001f94:	625a      	str	r2, [r3, #36]	; 0x24
 8001f96:	2253      	movs	r2, #83	; 0x53
 8001f98:	625a      	str	r2, [r3, #36]	; 0x24
 8001f9a:	4620      	mov	r0, r4
 8001f9c:	f7ff ffa4 	bl	8001ee8 <RTC_EnterInitMode>
 8001fa0:	bb48      	cbnz	r0, 8001ff6 <HAL_RTC_Init+0x86>
 8001fa2:	6823      	ldr	r3, [r4, #0]
 8001fa4:	6920      	ldr	r0, [r4, #16]
 8001fa6:	689a      	ldr	r2, [r3, #8]
 8001fa8:	f422 02e0 	bic.w	r2, r2, #7340032	; 0x700000
 8001fac:	f022 0240 	bic.w	r2, r2, #64	; 0x40
 8001fb0:	609a      	str	r2, [r3, #8]
 8001fb2:	6862      	ldr	r2, [r4, #4]
 8001fb4:	6899      	ldr	r1, [r3, #8]
 8001fb6:	4302      	orrs	r2, r0
 8001fb8:	69a0      	ldr	r0, [r4, #24]
 8001fba:	4302      	orrs	r2, r0
 8001fbc:	430a      	orrs	r2, r1
 8001fbe:	609a      	str	r2, [r3, #8]
 8001fc0:	68e2      	ldr	r2, [r4, #12]
 8001fc2:	611a      	str	r2, [r3, #16]
 8001fc4:	691a      	ldr	r2, [r3, #16]
 8001fc6:	68a1      	ldr	r1, [r4, #8]
 8001fc8:	ea42 4201 	orr.w	r2, r2, r1, lsl #16
 8001fcc:	611a      	str	r2, [r3, #16]
 8001fce:	4620      	mov	r0, r4
 8001fd0:	f7ff ffac 	bl	8001f2c <RTC_ExitInitMode>
 8001fd4:	b978      	cbnz	r0, 8001ff6 <HAL_RTC_Init+0x86>
 8001fd6:	6823      	ldr	r3, [r4, #0]
 8001fd8:	6965      	ldr	r5, [r4, #20]
 8001fda:	6cda      	ldr	r2, [r3, #76]	; 0x4c
 8001fdc:	f022 0203 	bic.w	r2, r2, #3
 8001fe0:	64da      	str	r2, [r3, #76]	; 0x4c
 8001fe2:	69e2      	ldr	r2, [r4, #28]
 8001fe4:	6cd9      	ldr	r1, [r3, #76]	; 0x4c
 8001fe6:	432a      	orrs	r2, r5
 8001fe8:	430a      	orrs	r2, r1
 8001fea:	64da      	str	r2, [r3, #76]	; 0x4c
 8001fec:	22ff      	movs	r2, #255	; 0xff
 8001fee:	625a      	str	r2, [r3, #36]	; 0x24
 8001ff0:	2301      	movs	r3, #1
 8001ff2:	f884 3021 	strb.w	r3, [r4, #33]	; 0x21
 8001ff6:	bd38      	pop	{r3, r4, r5, pc}
 8001ff8:	2001      	movs	r0, #1
 8001ffa:	e7fc      	b.n	8001ff6 <HAL_RTC_Init+0x86>

08001ffc <RTC_ByteToBcd2>:
 8001ffc:	2300      	movs	r3, #0
 8001ffe:	2809      	cmp	r0, #9
 8002000:	d803      	bhi.n	800200a <RTC_ByteToBcd2+0xe>
 8002002:	ea40 1003 	orr.w	r0, r0, r3, lsl #4
 8002006:	b2c0      	uxtb	r0, r0
 8002008:	4770      	bx	lr
 800200a:	380a      	subs	r0, #10
 800200c:	3301      	adds	r3, #1
 800200e:	b2c0      	uxtb	r0, r0
 8002010:	e7f5      	b.n	8001ffe <RTC_ByteToBcd2+0x2>

08002012 <HAL_RTC_SetTime>:
 8002012:	f890 3020 	ldrb.w	r3, [r0, #32]
 8002016:	2b01      	cmp	r3, #1
 8002018:	e92d 41f0 	stmdb	sp!, {r4, r5, r6, r7, r8, lr}
 800201c:	f04f 0302 	mov.w	r3, #2
 8002020:	4605      	mov	r5, r0
 8002022:	460e      	mov	r6, r1
 8002024:	4690      	mov	r8, r2
 8002026:	d054      	beq.n	80020d2 <HAL_RTC_SetTime+0xc0>
 8002028:	f880 3021 	strb.w	r3, [r0, #33]	; 0x21
 800202c:	2201      	movs	r2, #1
 800202e:	6803      	ldr	r3, [r0, #0]
 8002030:	f880 2020 	strb.w	r2, [r0, #32]
 8002034:	22ca      	movs	r2, #202	; 0xca
 8002036:	625a      	str	r2, [r3, #36]	; 0x24
 8002038:	2253      	movs	r2, #83	; 0x53
 800203a:	625a      	str	r2, [r3, #36]	; 0x24
 800203c:	f7ff ff54 	bl	8001ee8 <RTC_EnterInitMode>
 8002040:	bb70      	cbnz	r0, 80020a0 <HAL_RTC_SetTime+0x8e>
 8002042:	6829      	ldr	r1, [r5, #0]
 8002044:	7830      	ldrb	r0, [r6, #0]
 8002046:	7874      	ldrb	r4, [r6, #1]
 8002048:	78b7      	ldrb	r7, [r6, #2]
 800204a:	688b      	ldr	r3, [r1, #8]
 800204c:	f1b8 0f00 	cmp.w	r8, #0
 8002050:	d132      	bne.n	80020b8 <HAL_RTC_SetTime+0xa6>
 8002052:	f013 0340 	ands.w	r3, r3, #64	; 0x40
 8002056:	bf08      	it	eq
 8002058:	70f3      	strbeq	r3, [r6, #3]
 800205a:	f7ff ffcf 	bl	8001ffc <RTC_ByteToBcd2>
 800205e:	4602      	mov	r2, r0
 8002060:	4620      	mov	r0, r4
 8002062:	f7ff ffcb 	bl	8001ffc <RTC_ByteToBcd2>
 8002066:	4604      	mov	r4, r0
 8002068:	4638      	mov	r0, r7
 800206a:	f7ff ffc7 	bl	8001ffc <RTC_ByteToBcd2>
 800206e:	78f3      	ldrb	r3, [r6, #3]
 8002070:	ea40 5083 	orr.w	r0, r0, r3, lsl #22
 8002074:	ea40 4002 	orr.w	r0, r0, r2, lsl #16
 8002078:	ea40 2004 	orr.w	r0, r0, r4, lsl #8
 800207c:	f000 307f 	and.w	r0, r0, #2139062143	; 0x7f7f7f7f
 8002080:	f020 40fe 	bic.w	r0, r0, #2130706432	; 0x7f000000
 8002084:	6008      	str	r0, [r1, #0]
 8002086:	688b      	ldr	r3, [r1, #8]
 8002088:	f423 2380 	bic.w	r3, r3, #262144	; 0x40000
 800208c:	608b      	str	r3, [r1, #8]
 800208e:	e9d6 3003 	ldrd	r3, r0, [r6, #12]
 8002092:	688a      	ldr	r2, [r1, #8]
 8002094:	4303      	orrs	r3, r0
 8002096:	4313      	orrs	r3, r2
 8002098:	608b      	str	r3, [r1, #8]
 800209a:	4628      	mov	r0, r5
 800209c:	f7ff ff46 	bl	8001f2c <RTC_ExitInitMode>
 80020a0:	682b      	ldr	r3, [r5, #0]
 80020a2:	22ff      	movs	r2, #255	; 0xff
 80020a4:	625a      	str	r2, [r3, #36]	; 0x24
 80020a6:	b910      	cbnz	r0, 80020ae <HAL_RTC_SetTime+0x9c>
 80020a8:	2301      	movs	r3, #1
 80020aa:	f885 3021 	strb.w	r3, [r5, #33]	; 0x21
 80020ae:	2300      	movs	r3, #0
 80020b0:	f885 3020 	strb.w	r3, [r5, #32]
 80020b4:	e8bd 81f0 	ldmia.w	sp!, {r4, r5, r6, r7, r8, pc}
 80020b8:	f013 0340 	ands.w	r3, r3, #64	; 0x40
 80020bc:	ea4f 2404 	mov.w	r4, r4, lsl #8
 80020c0:	bf08      	it	eq
 80020c2:	70f3      	strbeq	r3, [r6, #3]
 80020c4:	ea44 4000 	orr.w	r0, r4, r0, lsl #16
 80020c8:	78f4      	ldrb	r4, [r6, #3]
 80020ca:	4338      	orrs	r0, r7
 80020cc:	ea40 5084 	orr.w	r0, r0, r4, lsl #22
 80020d0:	e7d4      	b.n	800207c <HAL_RTC_SetTime+0x6a>
 80020d2:	4618      	mov	r0, r3
 80020d4:	e7ee      	b.n	80020b4 <HAL_RTC_SetTime+0xa2>

080020d6 <HAL_RTC_SetDate>:
 80020d6:	b5f8      	push	{r3, r4, r5, r6, r7, lr}
 80020d8:	f890 3020 	ldrb.w	r3, [r0, #32]
 80020dc:	2b01      	cmp	r3, #1
 80020de:	4606      	mov	r6, r0
 80020e0:	f04f 0002 	mov.w	r0, #2
 80020e4:	d03b      	beq.n	800215e <HAL_RTC_SetDate+0x88>
 80020e6:	2301      	movs	r3, #1
 80020e8:	f886 3020 	strb.w	r3, [r6, #32]
 80020ec:	f886 0021 	strb.w	r0, [r6, #33]	; 0x21
 80020f0:	780d      	ldrb	r5, [r1, #0]
 80020f2:	78c8      	ldrb	r0, [r1, #3]
 80020f4:	784c      	ldrb	r4, [r1, #1]
 80020f6:	788f      	ldrb	r7, [r1, #2]
 80020f8:	036d      	lsls	r5, r5, #13
 80020fa:	bb8a      	cbnz	r2, 8002160 <HAL_RTC_SetDate+0x8a>
 80020fc:	06e3      	lsls	r3, r4, #27
 80020fe:	d503      	bpl.n	8002108 <HAL_RTC_SetDate+0x32>
 8002100:	f024 0410 	bic.w	r4, r4, #16
 8002104:	340a      	adds	r4, #10
 8002106:	704c      	strb	r4, [r1, #1]
 8002108:	f7ff ff78 	bl	8001ffc <RTC_ByteToBcd2>
 800210c:	4602      	mov	r2, r0
 800210e:	7848      	ldrb	r0, [r1, #1]
 8002110:	f7ff ff74 	bl	8001ffc <RTC_ByteToBcd2>
 8002114:	4604      	mov	r4, r0
 8002116:	4638      	mov	r0, r7
 8002118:	f7ff ff70 	bl	8001ffc <RTC_ByteToBcd2>
 800211c:	4328      	orrs	r0, r5
 800211e:	ea40 4002 	orr.w	r0, r0, r2, lsl #16
 8002122:	6833      	ldr	r3, [r6, #0]
 8002124:	22ca      	movs	r2, #202	; 0xca
 8002126:	625a      	str	r2, [r3, #36]	; 0x24
 8002128:	2253      	movs	r2, #83	; 0x53
 800212a:	ea40 2404 	orr.w	r4, r0, r4, lsl #8
 800212e:	625a      	str	r2, [r3, #36]	; 0x24
 8002130:	4630      	mov	r0, r6
 8002132:	f7ff fed9 	bl	8001ee8 <RTC_EnterInitMode>
 8002136:	b940      	cbnz	r0, 800214a <HAL_RTC_SetDate+0x74>
 8002138:	6833      	ldr	r3, [r6, #0]
 800213a:	f024 447f 	bic.w	r4, r4, #4278190080	; 0xff000000
 800213e:	f024 04c0 	bic.w	r4, r4, #192	; 0xc0
 8002142:	605c      	str	r4, [r3, #4]
 8002144:	4630      	mov	r0, r6
 8002146:	f7ff fef1 	bl	8001f2c <RTC_ExitInitMode>
 800214a:	6833      	ldr	r3, [r6, #0]
 800214c:	22ff      	movs	r2, #255	; 0xff
 800214e:	625a      	str	r2, [r3, #36]	; 0x24
 8002150:	b910      	cbnz	r0, 8002158 <HAL_RTC_SetDate+0x82>
 8002152:	2301      	movs	r3, #1
 8002154:	f886 3021 	strb.w	r3, [r6, #33]	; 0x21
 8002158:	2300      	movs	r3, #0
 800215a:	f886 3020 	strb.w	r3, [r6, #32]
 800215e:	bdf8      	pop	{r3, r4, r5, r6, r7, pc}
 8002160:	ea45 4000 	orr.w	r0, r5, r0, lsl #16
 8002164:	4338      	orrs	r0, r7
 8002166:	e7dc      	b.n	8002122 <HAL_RTC_SetDate+0x4c>

08002168 <HAL_RTC_SetAlarm_IT>:
 8002168:	f890 3020 	ldrb.w	r3, [r0, #32]
 800216c:	2b01      	cmp	r3, #1
 800216e:	e92d 47f0 	stmdb	sp!, {r4, r5, r6, r7, r8, r9, sl, lr}
 8002172:	4606      	mov	r6, r0
 8002174:	f04f 0002 	mov.w	r0, #2
 8002178:	f000 8088 	beq.w	800228c <HAL_RTC_SetAlarm_IT+0x124>
 800217c:	2301      	movs	r3, #1
 800217e:	6837      	ldr	r7, [r6, #0]
 8002180:	f886 3020 	strb.w	r3, [r6, #32]
 8002184:	f886 0021 	strb.w	r0, [r6, #33]	; 0x21
 8002188:	7808      	ldrb	r0, [r1, #0]
 800218a:	f891 a001 	ldrb.w	sl, [r1, #1]
 800218e:	788c      	ldrb	r4, [r1, #2]
 8002190:	f891 8024 	ldrb.w	r8, [r1, #36]	; 0x24
 8002194:	6a0d      	ldr	r5, [r1, #32]
 8002196:	68bb      	ldr	r3, [r7, #8]
 8002198:	2a00      	cmp	r2, #0
 800219a:	d157      	bne.n	800224c <HAL_RTC_SetAlarm_IT+0xe4>
 800219c:	f013 0340 	ands.w	r3, r3, #64	; 0x40
 80021a0:	bf08      	it	eq
 80021a2:	70cb      	strbeq	r3, [r1, #3]
 80021a4:	f7ff ff2a 	bl	8001ffc <RTC_ByteToBcd2>
 80021a8:	4681      	mov	r9, r0
 80021aa:	4650      	mov	r0, sl
 80021ac:	f7ff ff26 	bl	8001ffc <RTC_ByteToBcd2>
 80021b0:	4602      	mov	r2, r0
 80021b2:	4620      	mov	r0, r4
 80021b4:	f7ff ff22 	bl	8001ffc <RTC_ByteToBcd2>
 80021b8:	4682      	mov	sl, r0
 80021ba:	4640      	mov	r0, r8
 80021bc:	f7ff ff1e 	bl	8001ffc <RTC_ByteToBcd2>
 80021c0:	694b      	ldr	r3, [r1, #20]
 80021c2:	78cc      	ldrb	r4, [r1, #3]
 80021c4:	431d      	orrs	r5, r3
 80021c6:	ea45 5484 	orr.w	r4, r5, r4, lsl #22
 80021ca:	ea44 040a 	orr.w	r4, r4, sl
 80021ce:	ea44 4409 	orr.w	r4, r4, r9, lsl #16
 80021d2:	ea44 2402 	orr.w	r4, r4, r2, lsl #8
 80021d6:	ea44 6400 	orr.w	r4, r4, r0, lsl #24
 80021da:	69cb      	ldr	r3, [r1, #28]
 80021dc:	684d      	ldr	r5, [r1, #4]
 80021de:	431d      	orrs	r5, r3
 80021e0:	23ca      	movs	r3, #202	; 0xca
 80021e2:	627b      	str	r3, [r7, #36]	; 0x24
 80021e4:	2353      	movs	r3, #83	; 0x53
 80021e6:	627b      	str	r3, [r7, #36]	; 0x24
 80021e8:	6a8b      	ldr	r3, [r1, #40]	; 0x28
 80021ea:	f5b3 7f80 	cmp.w	r3, #256	; 0x100
 80021ee:	68bb      	ldr	r3, [r7, #8]
 80021f0:	d14e      	bne.n	8002290 <HAL_RTC_SetAlarm_IT+0x128>
 80021f2:	f423 7380 	bic.w	r3, r3, #256	; 0x100
 80021f6:	60bb      	str	r3, [r7, #8]
 80021f8:	68fb      	ldr	r3, [r7, #12]
 80021fa:	b2db      	uxtb	r3, r3
 80021fc:	f463 73c0 	orn	r3, r3, #384	; 0x180
 8002200:	60fb      	str	r3, [r7, #12]
 8002202:	f7fe f965 	bl	80004d0 <HAL_GetTick>
 8002206:	4680      	mov	r8, r0
 8002208:	6833      	ldr	r3, [r6, #0]
 800220a:	68df      	ldr	r7, [r3, #12]
 800220c:	f017 0701 	ands.w	r7, r7, #1
 8002210:	d02d      	beq.n	800226e <HAL_RTC_SetAlarm_IT+0x106>
 8002212:	61dc      	str	r4, [r3, #28]
 8002214:	645d      	str	r5, [r3, #68]	; 0x44
 8002216:	689a      	ldr	r2, [r3, #8]
 8002218:	f442 7280 	orr.w	r2, r2, #256	; 0x100
 800221c:	609a      	str	r2, [r3, #8]
 800221e:	689a      	ldr	r2, [r3, #8]
 8002220:	f442 5280 	orr.w	r2, r2, #4096	; 0x1000
 8002224:	609a      	str	r2, [r3, #8]
 8002226:	4b2b      	ldr	r3, [pc, #172]	; (80022d4 <HAL_RTC_SetAlarm_IT+0x16c>)
 8002228:	681a      	ldr	r2, [r3, #0]
 800222a:	f442 2280 	orr.w	r2, r2, #262144	; 0x40000
 800222e:	601a      	str	r2, [r3, #0]
 8002230:	689a      	ldr	r2, [r3, #8]
 8002232:	f442 2280 	orr.w	r2, r2, #262144	; 0x40000
 8002236:	609a      	str	r2, [r3, #8]
 8002238:	6833      	ldr	r3, [r6, #0]
 800223a:	22ff      	movs	r2, #255	; 0xff
 800223c:	625a      	str	r2, [r3, #36]	; 0x24
 800223e:	2000      	movs	r0, #0
 8002240:	2301      	movs	r3, #1
 8002242:	f886 3021 	strb.w	r3, [r6, #33]	; 0x21
 8002246:	f886 0020 	strb.w	r0, [r6, #32]
 800224a:	e01f      	b.n	800228c <HAL_RTC_SetAlarm_IT+0x124>
 800224c:	f013 0340 	ands.w	r3, r3, #64	; 0x40
 8002250:	bf08      	it	eq
 8002252:	70cb      	strbeq	r3, [r1, #3]
 8002254:	694b      	ldr	r3, [r1, #20]
 8002256:	431d      	orrs	r5, r3
 8002258:	432c      	orrs	r4, r5
 800225a:	ea44 4400 	orr.w	r4, r4, r0, lsl #16
 800225e:	78c8      	ldrb	r0, [r1, #3]
 8002260:	ea44 240a 	orr.w	r4, r4, sl, lsl #8
 8002264:	ea44 5480 	orr.w	r4, r4, r0, lsl #22
 8002268:	ea44 6408 	orr.w	r4, r4, r8, lsl #24
 800226c:	e7b5      	b.n	80021da <HAL_RTC_SetAlarm_IT+0x72>
 800226e:	f7fe f92f 	bl	80004d0 <HAL_GetTick>
 8002272:	eba0 0008 	sub.w	r0, r0, r8
 8002276:	f5b0 7f7a 	cmp.w	r0, #1000	; 0x3e8
 800227a:	d9c5      	bls.n	8002208 <HAL_RTC_SetAlarm_IT+0xa0>
 800227c:	6833      	ldr	r3, [r6, #0]
 800227e:	22ff      	movs	r2, #255	; 0xff
 8002280:	2003      	movs	r0, #3
 8002282:	625a      	str	r2, [r3, #36]	; 0x24
 8002284:	f886 0021 	strb.w	r0, [r6, #33]	; 0x21
 8002288:	f886 7020 	strb.w	r7, [r6, #32]
 800228c:	e8bd 87f0 	ldmia.w	sp!, {r4, r5, r6, r7, r8, r9, sl, pc}
 8002290:	f423 7300 	bic.w	r3, r3, #512	; 0x200
 8002294:	60bb      	str	r3, [r7, #8]
 8002296:	68fb      	ldr	r3, [r7, #12]
 8002298:	b2db      	uxtb	r3, r3
 800229a:	f463 7320 	orn	r3, r3, #640	; 0x280
 800229e:	60fb      	str	r3, [r7, #12]
 80022a0:	f7fe f916 	bl	80004d0 <HAL_GetTick>
 80022a4:	4680      	mov	r8, r0
 80022a6:	6833      	ldr	r3, [r6, #0]
 80022a8:	68df      	ldr	r7, [r3, #12]
 80022aa:	f017 0702 	ands.w	r7, r7, #2
 80022ae:	d009      	beq.n	80022c4 <HAL_RTC_SetAlarm_IT+0x15c>
 80022b0:	621c      	str	r4, [r3, #32]
 80022b2:	649d      	str	r5, [r3, #72]	; 0x48
 80022b4:	689a      	ldr	r2, [r3, #8]
 80022b6:	f442 7200 	orr.w	r2, r2, #512	; 0x200
 80022ba:	609a      	str	r2, [r3, #8]
 80022bc:	689a      	ldr	r2, [r3, #8]
 80022be:	f442 5200 	orr.w	r2, r2, #8192	; 0x2000
 80022c2:	e7af      	b.n	8002224 <HAL_RTC_SetAlarm_IT+0xbc>
 80022c4:	f7fe f904 	bl	80004d0 <HAL_GetTick>
 80022c8:	eba0 0008 	sub.w	r0, r0, r8
 80022cc:	f5b0 7f7a 	cmp.w	r0, #1000	; 0x3e8
 80022d0:	d9e9      	bls.n	80022a6 <HAL_RTC_SetAlarm_IT+0x13e>
 80022d2:	e7d3      	b.n	800227c <HAL_RTC_SetAlarm_IT+0x114>
 80022d4:	40010400 	.word	0x40010400

080022d8 <RTC_Bcd2ToByte>:
 80022d8:	0903      	lsrs	r3, r0, #4
 80022da:	eb03 0383 	add.w	r3, r3, r3, lsl #2
 80022de:	f000 000f 	and.w	r0, r0, #15
 80022e2:	eb00 0043 	add.w	r0, r0, r3, lsl #1
 80022e6:	b2c0      	uxtb	r0, r0
 80022e8:	4770      	bx	lr

080022ea <HAL_RTC_GetTime>:
 80022ea:	b538      	push	{r3, r4, r5, lr}
 80022ec:	6803      	ldr	r3, [r0, #0]
 80022ee:	6a98      	ldr	r0, [r3, #40]	; 0x28
 80022f0:	6048      	str	r0, [r1, #4]
 80022f2:	6918      	ldr	r0, [r3, #16]
 80022f4:	681b      	ldr	r3, [r3, #0]
 80022f6:	f003 337f 	and.w	r3, r3, #2139062143	; 0x7f7f7f7f
 80022fa:	f023 43fe 	bic.w	r3, r3, #2130706432	; 0x7f000000
 80022fe:	f3c0 000e 	ubfx	r0, r0, #0, #15
 8002302:	f3c3 2506 	ubfx	r5, r3, #8, #7
 8002306:	b2dc      	uxtb	r4, r3
 8002308:	6088      	str	r0, [r1, #8]
 800230a:	f3c3 4005 	ubfx	r0, r3, #16, #6
 800230e:	0d9b      	lsrs	r3, r3, #22
 8002310:	7008      	strb	r0, [r1, #0]
 8002312:	704d      	strb	r5, [r1, #1]
 8002314:	708c      	strb	r4, [r1, #2]
 8002316:	70cb      	strb	r3, [r1, #3]
 8002318:	b952      	cbnz	r2, 8002330 <HAL_RTC_GetTime+0x46>
 800231a:	f7ff ffdd 	bl	80022d8 <RTC_Bcd2ToByte>
 800231e:	7008      	strb	r0, [r1, #0]
 8002320:	4628      	mov	r0, r5
 8002322:	f7ff ffd9 	bl	80022d8 <RTC_Bcd2ToByte>
 8002326:	7048      	strb	r0, [r1, #1]
 8002328:	4620      	mov	r0, r4
 800232a:	f7ff ffd5 	bl	80022d8 <RTC_Bcd2ToByte>
 800232e:	7088      	strb	r0, [r1, #2]
 8002330:	2000      	movs	r0, #0
 8002332:	bd38      	pop	{r3, r4, r5, pc}

08002334 <HAL_RTC_GetDate>:
 8002334:	b538      	push	{r3, r4, r5, lr}
 8002336:	6803      	ldr	r3, [r0, #0]
 8002338:	685b      	ldr	r3, [r3, #4]
 800233a:	f023 437f 	bic.w	r3, r3, #4278190080	; 0xff000000
 800233e:	f023 03c0 	bic.w	r3, r3, #192	; 0xc0
 8002342:	0c18      	lsrs	r0, r3, #16
 8002344:	f3c3 2504 	ubfx	r5, r3, #8, #5
 8002348:	b2dc      	uxtb	r4, r3
 800234a:	f3c3 3342 	ubfx	r3, r3, #13, #3
 800234e:	70c8      	strb	r0, [r1, #3]
 8002350:	704d      	strb	r5, [r1, #1]
 8002352:	708c      	strb	r4, [r1, #2]
 8002354:	700b      	strb	r3, [r1, #0]
 8002356:	b952      	cbnz	r2, 800236e <HAL_RTC_GetDate+0x3a>
 8002358:	f7ff ffbe 	bl	80022d8 <RTC_Bcd2ToByte>
 800235c:	70c8      	strb	r0, [r1, #3]
 800235e:	4628      	mov	r0, r5
 8002360:	f7ff ffba 	bl	80022d8 <RTC_Bcd2ToByte>
 8002364:	7048      	strb	r0, [r1, #1]
 8002366:	4620      	mov	r0, r4
 8002368:	f7ff ffb6 	bl	80022d8 <RTC_Bcd2ToByte>
 800236c:	7088      	strb	r0, [r1, #2]
 800236e:	2000      	movs	r0, #0
 8002370:	bd38      	pop	{r3, r4, r5, pc}

08002372 <HAL_RTCEx_SetSmoothCalib>:
 8002372:	e92d 41f0 	stmdb	sp!, {r4, r5, r6, r7, r8, lr}
 8002376:	461f      	mov	r7, r3
 8002378:	f890 3020 	ldrb.w	r3, [r0, #32]
 800237c:	2b01      	cmp	r3, #1
 800237e:	4604      	mov	r4, r0
 8002380:	460e      	mov	r6, r1
 8002382:	4615      	mov	r5, r2
 8002384:	f04f 0002 	mov.w	r0, #2
 8002388:	d01e      	beq.n	80023c8 <HAL_RTCEx_SetSmoothCalib+0x56>
 800238a:	2301      	movs	r3, #1
 800238c:	f884 3020 	strb.w	r3, [r4, #32]
 8002390:	6823      	ldr	r3, [r4, #0]
 8002392:	f884 0021 	strb.w	r0, [r4, #33]	; 0x21
 8002396:	22ca      	movs	r2, #202	; 0xca
 8002398:	625a      	str	r2, [r3, #36]	; 0x24
 800239a:	2253      	movs	r2, #83	; 0x53
 800239c:	625a      	str	r2, [r3, #36]	; 0x24
 800239e:	68db      	ldr	r3, [r3, #12]
 80023a0:	03da      	lsls	r2, r3, #15
 80023a2:	d413      	bmi.n	80023cc <HAL_RTCEx_SetSmoothCalib+0x5a>
 80023a4:	6822      	ldr	r2, [r4, #0]
 80023a6:	6bd3      	ldr	r3, [r2, #60]	; 0x3c
 80023a8:	433d      	orrs	r5, r7
 80023aa:	f423 4361 	bic.w	r3, r3, #57600	; 0xe100
 80023ae:	f023 03ff 	bic.w	r3, r3, #255	; 0xff
 80023b2:	4335      	orrs	r5, r6
 80023b4:	431d      	orrs	r5, r3
 80023b6:	23ff      	movs	r3, #255	; 0xff
 80023b8:	63d5      	str	r5, [r2, #60]	; 0x3c
 80023ba:	2000      	movs	r0, #0
 80023bc:	6253      	str	r3, [r2, #36]	; 0x24
 80023be:	2301      	movs	r3, #1
 80023c0:	f884 3021 	strb.w	r3, [r4, #33]	; 0x21
 80023c4:	f884 0020 	strb.w	r0, [r4, #32]
 80023c8:	e8bd 81f0 	ldmia.w	sp!, {r4, r5, r6, r7, r8, pc}
 80023cc:	f7fe f880 	bl	80004d0 <HAL_GetTick>
 80023d0:	4680      	mov	r8, r0
 80023d2:	6823      	ldr	r3, [r4, #0]
 80023d4:	68db      	ldr	r3, [r3, #12]
 80023d6:	03db      	lsls	r3, r3, #15
 80023d8:	d5e4      	bpl.n	80023a4 <HAL_RTCEx_SetSmoothCalib+0x32>
 80023da:	f7fe f879 	bl	80004d0 <HAL_GetTick>
 80023de:	eba0 0008 	sub.w	r0, r0, r8
 80023e2:	f5b0 7f7a 	cmp.w	r0, #1000	; 0x3e8
 80023e6:	d9f4      	bls.n	80023d2 <HAL_RTCEx_SetSmoothCalib+0x60>
 80023e8:	6823      	ldr	r3, [r4, #0]
 80023ea:	22ff      	movs	r2, #255	; 0xff
 80023ec:	625a      	str	r2, [r3, #36]	; 0x24
 80023ee:	2003      	movs	r0, #3
 80023f0:	2300      	movs	r3, #0
 80023f2:	f884 0021 	strb.w	r0, [r4, #33]	; 0x21
 80023f6:	f884 3020 	strb.w	r3, [r4, #32]
 80023fa:	e7e5      	b.n	80023c8 <HAL_RTCEx_SetSmoothCalib+0x56>

080023fc <HAL_RTCEx_AlarmBEventCallback>:
 80023fc:	4770      	bx	lr

080023fe <HAL_RTCEx_BKUPWrite>:
 80023fe:	6803      	ldr	r3, [r0, #0]
 8002400:	b082      	sub	sp, #8
 8002402:	3350      	adds	r3, #80	; 0x50
 8002404:	9301      	str	r3, [sp, #4]
 8002406:	9b01      	ldr	r3, [sp, #4]
 8002408:	eb03 0181 	add.w	r1, r3, r1, lsl #2
 800240c:	9101      	str	r1, [sp, #4]
 800240e:	9b01      	ldr	r3, [sp, #4]
 8002410:	601a      	str	r2, [r3, #0]
 8002412:	b002      	add	sp, #8
 8002414:	4770      	bx	lr

08002416 <HAL_RTCEx_BKUPRead>:
 8002416:	6803      	ldr	r3, [r0, #0]
 8002418:	3350      	adds	r3, #80	; 0x50
 800241a:	f853 0021 	ldr.w	r0, [r3, r1, lsl #2]
 800241e:	4770      	bx	lr

08002420 <SPI_WaitFifoStateUntilTimeout.part.1>:
 8002420:	6803      	ldr	r3, [r0, #0]
 8002422:	685a      	ldr	r2, [r3, #4]
 8002424:	f022 02e0 	bic.w	r2, r2, #224	; 0xe0
 8002428:	605a      	str	r2, [r3, #4]
 800242a:	6842      	ldr	r2, [r0, #4]
 800242c:	f5b2 7f82 	cmp.w	r2, #260	; 0x104
 8002430:	d10a      	bne.n	8002448 <SPI_WaitFifoStateUntilTimeout.part.1+0x28>
 8002432:	6882      	ldr	r2, [r0, #8]
 8002434:	f5b2 4f00 	cmp.w	r2, #32768	; 0x8000
 8002438:	d002      	beq.n	8002440 <SPI_WaitFifoStateUntilTimeout.part.1+0x20>
 800243a:	f5b2 6f80 	cmp.w	r2, #1024	; 0x400
 800243e:	d103      	bne.n	8002448 <SPI_WaitFifoStateUntilTimeout.part.1+0x28>
 8002440:	681a      	ldr	r2, [r3, #0]
 8002442:	f022 0240 	bic.w	r2, r2, #64	; 0x40
 8002446:	601a      	str	r2, [r3, #0]
 8002448:	6a82      	ldr	r2, [r0, #40]	; 0x28
 800244a:	f5b2 5f00 	cmp.w	r2, #8192	; 0x2000
 800244e:	d107      	bne.n	8002460 <SPI_WaitFifoStateUntilTimeout.part.1+0x40>
 8002450:	681a      	ldr	r2, [r3, #0]
 8002452:	f422 5200 	bic.w	r2, r2, #8192	; 0x2000
 8002456:	601a      	str	r2, [r3, #0]
 8002458:	681a      	ldr	r2, [r3, #0]
 800245a:	f442 5200 	orr.w	r2, r2, #8192	; 0x2000
 800245e:	601a      	str	r2, [r3, #0]
 8002460:	2301      	movs	r3, #1
 8002462:	f880 305d 	strb.w	r3, [r0, #93]	; 0x5d
 8002466:	2300      	movs	r3, #0
 8002468:	f880 305c 	strb.w	r3, [r0, #92]	; 0x5c
 800246c:	2003      	movs	r0, #3
 800246e:	4770      	bx	lr

08002470 <SPI_WaitFlagStateUntilTimeout.constprop.9>:
 8002470:	b5f7      	push	{r0, r1, r2, r4, r5, r6, r7, lr}
 8002472:	460e      	mov	r6, r1
 8002474:	4614      	mov	r4, r2
 8002476:	4605      	mov	r5, r0
 8002478:	f7fe f82a 	bl	80004d0 <HAL_GetTick>
 800247c:	4434      	add	r4, r6
 800247e:	1a24      	subs	r4, r4, r0
 8002480:	f7fe f826 	bl	80004d0 <HAL_GetTick>
 8002484:	4b10      	ldr	r3, [pc, #64]	; (80024c8 <SPI_WaitFlagStateUntilTimeout.constprop.9+0x58>)
 8002486:	681b      	ldr	r3, [r3, #0]
 8002488:	f3c3 33cb 	ubfx	r3, r3, #15, #12
 800248c:	4607      	mov	r7, r0
 800248e:	4363      	muls	r3, r4
 8002490:	9301      	str	r3, [sp, #4]
 8002492:	682b      	ldr	r3, [r5, #0]
 8002494:	6898      	ldr	r0, [r3, #8]
 8002496:	f010 0080 	ands.w	r0, r0, #128	; 0x80
 800249a:	d101      	bne.n	80024a0 <SPI_WaitFlagStateUntilTimeout.constprop.9+0x30>
 800249c:	b003      	add	sp, #12
 800249e:	bdf0      	pop	{r4, r5, r6, r7, pc}
 80024a0:	1c72      	adds	r2, r6, #1
 80024a2:	d0f7      	beq.n	8002494 <SPI_WaitFlagStateUntilTimeout.constprop.9+0x24>
 80024a4:	f7fe f814 	bl	80004d0 <HAL_GetTick>
 80024a8:	1bc0      	subs	r0, r0, r7
 80024aa:	42a0      	cmp	r0, r4
 80024ac:	d305      	bcc.n	80024ba <SPI_WaitFlagStateUntilTimeout.constprop.9+0x4a>
 80024ae:	4628      	mov	r0, r5
 80024b0:	b003      	add	sp, #12
 80024b2:	e8bd 40f0 	ldmia.w	sp!, {r4, r5, r6, r7, lr}
 80024b6:	f7ff bfb3 	b.w	8002420 <SPI_WaitFifoStateUntilTimeout.part.1>
 80024ba:	9b01      	ldr	r3, [sp, #4]
 80024bc:	2b00      	cmp	r3, #0
 80024be:	9b01      	ldr	r3, [sp, #4]
 80024c0:	bf08      	it	eq
 80024c2:	2400      	moveq	r4, #0
 80024c4:	3b01      	subs	r3, #1
 80024c6:	e7e3      	b.n	8002490 <SPI_WaitFlagStateUntilTimeout.constprop.9+0x20>
 80024c8:	20000000 	.word	0x20000000

080024cc <SPI_WaitFifoStateUntilTimeout.constprop.10>:
 80024cc:	e92d 41f3 	stmdb	sp!, {r0, r1, r4, r5, r6, r7, r8, lr}
 80024d0:	4617      	mov	r7, r2
 80024d2:	461c      	mov	r4, r3
 80024d4:	460d      	mov	r5, r1
 80024d6:	4606      	mov	r6, r0
 80024d8:	f7fd fffa 	bl	80004d0 <HAL_GetTick>
 80024dc:	443c      	add	r4, r7
 80024de:	1a24      	subs	r4, r4, r0
 80024e0:	f7fd fff6 	bl	80004d0 <HAL_GetTick>
 80024e4:	4b13      	ldr	r3, [pc, #76]	; (8002534 <SPI_WaitFifoStateUntilTimeout.constprop.10+0x68>)
 80024e6:	681a      	ldr	r2, [r3, #0]
 80024e8:	2323      	movs	r3, #35	; 0x23
 80024ea:	4353      	muls	r3, r2
 80024ec:	0d1b      	lsrs	r3, r3, #20
 80024ee:	4680      	mov	r8, r0
 80024f0:	4363      	muls	r3, r4
 80024f2:	9301      	str	r3, [sp, #4]
 80024f4:	6833      	ldr	r3, [r6, #0]
 80024f6:	6898      	ldr	r0, [r3, #8]
 80024f8:	4028      	ands	r0, r5
 80024fa:	d102      	bne.n	8002502 <SPI_WaitFifoStateUntilTimeout.constprop.10+0x36>
 80024fc:	b002      	add	sp, #8
 80024fe:	e8bd 81f0 	ldmia.w	sp!, {r4, r5, r6, r7, r8, pc}
 8002502:	f5b5 6fc0 	cmp.w	r5, #1536	; 0x600
 8002506:	bf08      	it	eq
 8002508:	7b1a      	ldrbeq	r2, [r3, #12]
 800250a:	1c7a      	adds	r2, r7, #1
 800250c:	d0f3      	beq.n	80024f6 <SPI_WaitFifoStateUntilTimeout.constprop.10+0x2a>
 800250e:	f7fd ffdf 	bl	80004d0 <HAL_GetTick>
 8002512:	eba0 0008 	sub.w	r0, r0, r8
 8002516:	42a0      	cmp	r0, r4
 8002518:	d305      	bcc.n	8002526 <SPI_WaitFifoStateUntilTimeout.constprop.10+0x5a>
 800251a:	4630      	mov	r0, r6
 800251c:	b002      	add	sp, #8
 800251e:	e8bd 41f0 	ldmia.w	sp!, {r4, r5, r6, r7, r8, lr}
 8002522:	f7ff bf7d 	b.w	8002420 <SPI_WaitFifoStateUntilTimeout.part.1>
 8002526:	9b01      	ldr	r3, [sp, #4]
 8002528:	2b00      	cmp	r3, #0
 800252a:	9b01      	ldr	r3, [sp, #4]
 800252c:	bf08      	it	eq
 800252e:	2400      	moveq	r4, #0
 8002530:	3b01      	subs	r3, #1
 8002532:	e7de      	b.n	80024f2 <SPI_WaitFifoStateUntilTimeout.constprop.10+0x26>
 8002534:	20000000 	.word	0x20000000

08002538 <SPI_EndRxTransaction>:
 8002538:	b5f8      	push	{r3, r4, r5, r6, r7, lr}
 800253a:	6843      	ldr	r3, [r0, #4]
 800253c:	f5b3 7f82 	cmp.w	r3, #260	; 0x104
 8002540:	4604      	mov	r4, r0
 8002542:	460e      	mov	r6, r1
 8002544:	4617      	mov	r7, r2
 8002546:	d10b      	bne.n	8002560 <SPI_EndRxTransaction+0x28>
 8002548:	6883      	ldr	r3, [r0, #8]
 800254a:	f5b3 4f00 	cmp.w	r3, #32768	; 0x8000
 800254e:	d002      	beq.n	8002556 <SPI_EndRxTransaction+0x1e>
 8002550:	f5b3 6f80 	cmp.w	r3, #1024	; 0x400
 8002554:	d104      	bne.n	8002560 <SPI_EndRxTransaction+0x28>
 8002556:	6823      	ldr	r3, [r4, #0]
 8002558:	681a      	ldr	r2, [r3, #0]
 800255a:	f022 0240 	bic.w	r2, r2, #64	; 0x40
 800255e:	601a      	str	r2, [r3, #0]
 8002560:	463a      	mov	r2, r7
 8002562:	4631      	mov	r1, r6
 8002564:	4620      	mov	r0, r4
 8002566:	f7ff ff83 	bl	8002470 <SPI_WaitFlagStateUntilTimeout.constprop.9>
 800256a:	4605      	mov	r5, r0
 800256c:	b128      	cbz	r0, 800257a <SPI_EndRxTransaction+0x42>
 800256e:	6e23      	ldr	r3, [r4, #96]	; 0x60
 8002570:	f043 0320 	orr.w	r3, r3, #32
 8002574:	6623      	str	r3, [r4, #96]	; 0x60
 8002576:	2503      	movs	r5, #3
 8002578:	e013      	b.n	80025a2 <SPI_EndRxTransaction+0x6a>
 800257a:	6863      	ldr	r3, [r4, #4]
 800257c:	f5b3 7f82 	cmp.w	r3, #260	; 0x104
 8002580:	d10f      	bne.n	80025a2 <SPI_EndRxTransaction+0x6a>
 8002582:	68a3      	ldr	r3, [r4, #8]
 8002584:	f5b3 4f00 	cmp.w	r3, #32768	; 0x8000
 8002588:	d002      	beq.n	8002590 <SPI_EndRxTransaction+0x58>
 800258a:	f5b3 6f80 	cmp.w	r3, #1024	; 0x400
 800258e:	d108      	bne.n	80025a2 <SPI_EndRxTransaction+0x6a>
 8002590:	463b      	mov	r3, r7
 8002592:	4632      	mov	r2, r6
 8002594:	f44f 61c0 	mov.w	r1, #1536	; 0x600
 8002598:	4620      	mov	r0, r4
 800259a:	f7ff ff97 	bl	80024cc <SPI_WaitFifoStateUntilTimeout.constprop.10>
 800259e:	2800      	cmp	r0, #0
 80025a0:	d1e5      	bne.n	800256e <SPI_EndRxTransaction+0x36>
 80025a2:	4628      	mov	r0, r5
 80025a4:	bdf8      	pop	{r3, r4, r5, r6, r7, pc}

080025a6 <SPI_EndRxTxTransaction>:
 80025a6:	b570      	push	{r4, r5, r6, lr}
 80025a8:	4613      	mov	r3, r2
 80025aa:	460d      	mov	r5, r1
 80025ac:	4616      	mov	r6, r2
 80025ae:	460a      	mov	r2, r1
 80025b0:	f44f 51c0 	mov.w	r1, #6144	; 0x1800
 80025b4:	4604      	mov	r4, r0
 80025b6:	f7ff ff89 	bl	80024cc <SPI_WaitFifoStateUntilTimeout.constprop.10>
 80025ba:	b128      	cbz	r0, 80025c8 <SPI_EndRxTxTransaction+0x22>
 80025bc:	6e23      	ldr	r3, [r4, #96]	; 0x60
 80025be:	f043 0320 	orr.w	r3, r3, #32
 80025c2:	6623      	str	r3, [r4, #96]	; 0x60
 80025c4:	2003      	movs	r0, #3
 80025c6:	e00f      	b.n	80025e8 <SPI_EndRxTxTransaction+0x42>
 80025c8:	4632      	mov	r2, r6
 80025ca:	4629      	mov	r1, r5
 80025cc:	4620      	mov	r0, r4
 80025ce:	f7ff ff4f 	bl	8002470 <SPI_WaitFlagStateUntilTimeout.constprop.9>
 80025d2:	2800      	cmp	r0, #0
 80025d4:	d1f2      	bne.n	80025bc <SPI_EndRxTxTransaction+0x16>
 80025d6:	4633      	mov	r3, r6
 80025d8:	462a      	mov	r2, r5
 80025da:	f44f 61c0 	mov.w	r1, #1536	; 0x600
 80025de:	4620      	mov	r0, r4
 80025e0:	f7ff ff74 	bl	80024cc <SPI_WaitFifoStateUntilTimeout.constprop.10>
 80025e4:	2800      	cmp	r0, #0
 80025e6:	d1e9      	bne.n	80025bc <SPI_EndRxTxTransaction+0x16>
 80025e8:	bd70      	pop	{r4, r5, r6, pc}

080025ea <HAL_SPI_Init>:
 80025ea:	b570      	push	{r4, r5, r6, lr}
 80025ec:	4604      	mov	r4, r0
 80025ee:	2800      	cmp	r0, #0
 80025f0:	d05f      	beq.n	80026b2 <HAL_SPI_Init+0xc8>
 80025f2:	6a43      	ldr	r3, [r0, #36]	; 0x24
 80025f4:	2b00      	cmp	r3, #0
 80025f6:	d158      	bne.n	80026aa <HAL_SPI_Init+0xc0>
 80025f8:	6842      	ldr	r2, [r0, #4]
 80025fa:	f5b2 7f82 	cmp.w	r2, #260	; 0x104
 80025fe:	d000      	beq.n	8002602 <HAL_SPI_Init+0x18>
 8002600:	61c3      	str	r3, [r0, #28]
 8002602:	2300      	movs	r3, #0
 8002604:	62a3      	str	r3, [r4, #40]	; 0x28
 8002606:	f894 305d 	ldrb.w	r3, [r4, #93]	; 0x5d
 800260a:	f003 02ff 	and.w	r2, r3, #255	; 0xff
 800260e:	b923      	cbnz	r3, 800261a <HAL_SPI_Init+0x30>
 8002610:	f884 205c 	strb.w	r2, [r4, #92]	; 0x5c
 8002614:	4620      	mov	r0, r4
 8002616:	f7fd fe89 	bl	800032c <HAL_SPI_MspInit>
 800261a:	2302      	movs	r3, #2
 800261c:	6825      	ldr	r5, [r4, #0]
 800261e:	f884 305d 	strb.w	r3, [r4, #93]	; 0x5d
 8002622:	682b      	ldr	r3, [r5, #0]
 8002624:	68e1      	ldr	r1, [r4, #12]
 8002626:	f023 0340 	bic.w	r3, r3, #64	; 0x40
 800262a:	f5b1 6fe0 	cmp.w	r1, #1792	; 0x700
 800262e:	602b      	str	r3, [r5, #0]
 8002630:	f04f 0300 	mov.w	r3, #0
 8002634:	d83f      	bhi.n	80026b6 <HAL_SPI_Init+0xcc>
 8002636:	f44f 5080 	mov.w	r0, #4096	; 0x1000
 800263a:	d000      	beq.n	800263e <HAL_SPI_Init+0x54>
 800263c:	62a3      	str	r3, [r4, #40]	; 0x28
 800263e:	6863      	ldr	r3, [r4, #4]
 8002640:	68a6      	ldr	r6, [r4, #8]
 8002642:	69a2      	ldr	r2, [r4, #24]
 8002644:	f406 4604 	and.w	r6, r6, #33792	; 0x8400
 8002648:	f403 7382 	and.w	r3, r3, #260	; 0x104
 800264c:	4333      	orrs	r3, r6
 800264e:	6926      	ldr	r6, [r4, #16]
 8002650:	f006 0602 	and.w	r6, r6, #2
 8002654:	4333      	orrs	r3, r6
 8002656:	6966      	ldr	r6, [r4, #20]
 8002658:	f006 0601 	and.w	r6, r6, #1
 800265c:	4333      	orrs	r3, r6
 800265e:	f402 7600 	and.w	r6, r2, #512	; 0x200
 8002662:	4333      	orrs	r3, r6
 8002664:	69e6      	ldr	r6, [r4, #28]
 8002666:	f006 0638 	and.w	r6, r6, #56	; 0x38
 800266a:	4333      	orrs	r3, r6
 800266c:	6a26      	ldr	r6, [r4, #32]
 800266e:	f006 0680 	and.w	r6, r6, #128	; 0x80
 8002672:	4333      	orrs	r3, r6
 8002674:	6aa6      	ldr	r6, [r4, #40]	; 0x28
 8002676:	f406 5600 	and.w	r6, r6, #8192	; 0x2000
 800267a:	4333      	orrs	r3, r6
 800267c:	602b      	str	r3, [r5, #0]
 800267e:	6b66      	ldr	r6, [r4, #52]	; 0x34
 8002680:	6a63      	ldr	r3, [r4, #36]	; 0x24
 8002682:	f006 0608 	and.w	r6, r6, #8
 8002686:	f003 0310 	and.w	r3, r3, #16
 800268a:	4333      	orrs	r3, r6
 800268c:	f401 6170 	and.w	r1, r1, #3840	; 0xf00
 8002690:	0c12      	lsrs	r2, r2, #16
 8002692:	4319      	orrs	r1, r3
 8002694:	f002 0204 	and.w	r2, r2, #4
 8002698:	430a      	orrs	r2, r1
 800269a:	4310      	orrs	r0, r2
 800269c:	6068      	str	r0, [r5, #4]
 800269e:	2301      	movs	r3, #1
 80026a0:	2000      	movs	r0, #0
 80026a2:	6620      	str	r0, [r4, #96]	; 0x60
 80026a4:	f884 305d 	strb.w	r3, [r4, #93]	; 0x5d
 80026a8:	bd70      	pop	{r4, r5, r6, pc}
 80026aa:	2300      	movs	r3, #0
 80026ac:	e9c0 3304 	strd	r3, r3, [r0, #16]
 80026b0:	e7a7      	b.n	8002602 <HAL_SPI_Init+0x18>
 80026b2:	2001      	movs	r0, #1
 80026b4:	e7f8      	b.n	80026a8 <HAL_SPI_Init+0xbe>
 80026b6:	4618      	mov	r0, r3
 80026b8:	f5b1 6f70 	cmp.w	r1, #3840	; 0xf00
 80026bc:	e7bd      	b.n	800263a <HAL_SPI_Init+0x50>

080026be <HAL_SPI_Transmit>:
 80026be:	e92d 41f3 	stmdb	sp!, {r0, r1, r4, r5, r6, r7, r8, lr}
 80026c2:	461e      	mov	r6, r3
 80026c4:	f890 305c 	ldrb.w	r3, [r0, #92]	; 0x5c
 80026c8:	2b01      	cmp	r3, #1
 80026ca:	4604      	mov	r4, r0
 80026cc:	460d      	mov	r5, r1
 80026ce:	4690      	mov	r8, r2
 80026d0:	f000 80b2 	beq.w	8002838 <HAL_SPI_Transmit+0x17a>
 80026d4:	2301      	movs	r3, #1
 80026d6:	f880 305c 	strb.w	r3, [r0, #92]	; 0x5c
 80026da:	f7fd fef9 	bl	80004d0 <HAL_GetTick>
 80026de:	4607      	mov	r7, r0
 80026e0:	f894 005d 	ldrb.w	r0, [r4, #93]	; 0x5d
 80026e4:	b2c0      	uxtb	r0, r0
 80026e6:	2801      	cmp	r0, #1
 80026e8:	f040 80a4 	bne.w	8002834 <HAL_SPI_Transmit+0x176>
 80026ec:	2d00      	cmp	r5, #0
 80026ee:	d062      	beq.n	80027b6 <HAL_SPI_Transmit+0xf8>
 80026f0:	f1b8 0f00 	cmp.w	r8, #0
 80026f4:	d05f      	beq.n	80027b6 <HAL_SPI_Transmit+0xf8>
 80026f6:	2303      	movs	r3, #3
 80026f8:	f884 305d 	strb.w	r3, [r4, #93]	; 0x5d
 80026fc:	68a3      	ldr	r3, [r4, #8]
 80026fe:	63a5      	str	r5, [r4, #56]	; 0x38
 8002700:	2000      	movs	r0, #0
 8002702:	f5b3 4f00 	cmp.w	r3, #32768	; 0x8000
 8002706:	6620      	str	r0, [r4, #96]	; 0x60
 8002708:	6420      	str	r0, [r4, #64]	; 0x40
 800270a:	f8a4 803e 	strh.w	r8, [r4, #62]	; 0x3e
 800270e:	f8a4 0044 	strh.w	r0, [r4, #68]	; 0x44
 8002712:	f8a4 0046 	strh.w	r0, [r4, #70]	; 0x46
 8002716:	e9c4 0013 	strd	r0, r0, [r4, #76]	; 0x4c
 800271a:	f8a4 803c 	strh.w	r8, [r4, #60]	; 0x3c
 800271e:	6820      	ldr	r0, [r4, #0]
 8002720:	d107      	bne.n	8002732 <HAL_SPI_Transmit+0x74>
 8002722:	6803      	ldr	r3, [r0, #0]
 8002724:	f023 0340 	bic.w	r3, r3, #64	; 0x40
 8002728:	6003      	str	r3, [r0, #0]
 800272a:	6803      	ldr	r3, [r0, #0]
 800272c:	f443 4380 	orr.w	r3, r3, #16384	; 0x4000
 8002730:	6003      	str	r3, [r0, #0]
 8002732:	6803      	ldr	r3, [r0, #0]
 8002734:	68e2      	ldr	r2, [r4, #12]
 8002736:	065b      	lsls	r3, r3, #25
 8002738:	bf5e      	ittt	pl
 800273a:	6803      	ldrpl	r3, [r0, #0]
 800273c:	f043 0340 	orrpl.w	r3, r3, #64	; 0x40
 8002740:	6003      	strpl	r3, [r0, #0]
 8002742:	f5b2 6fe0 	cmp.w	r2, #1792	; 0x700
 8002746:	6863      	ldr	r3, [r4, #4]
 8002748:	d93e      	bls.n	80027c8 <HAL_SPI_Transmit+0x10a>
 800274a:	b113      	cbz	r3, 8002752 <HAL_SPI_Transmit+0x94>
 800274c:	f1b8 0f01 	cmp.w	r8, #1
 8002750:	d107      	bne.n	8002762 <HAL_SPI_Transmit+0xa4>
 8002752:	f835 3b02 	ldrh.w	r3, [r5], #2
 8002756:	60c3      	str	r3, [r0, #12]
 8002758:	63a5      	str	r5, [r4, #56]	; 0x38
 800275a:	8fe3      	ldrh	r3, [r4, #62]	; 0x3e
 800275c:	3b01      	subs	r3, #1
 800275e:	b29b      	uxth	r3, r3
 8002760:	87e3      	strh	r3, [r4, #62]	; 0x3e
 8002762:	8fe3      	ldrh	r3, [r4, #62]	; 0x3e
 8002764:	b29b      	uxth	r3, r3
 8002766:	b9a3      	cbnz	r3, 8002792 <HAL_SPI_Transmit+0xd4>
 8002768:	463a      	mov	r2, r7
 800276a:	4631      	mov	r1, r6
 800276c:	4620      	mov	r0, r4
 800276e:	f7ff ff1a 	bl	80025a6 <SPI_EndRxTxTransaction>
 8002772:	2800      	cmp	r0, #0
 8002774:	d15b      	bne.n	800282e <HAL_SPI_Transmit+0x170>
 8002776:	68a3      	ldr	r3, [r4, #8]
 8002778:	b933      	cbnz	r3, 8002788 <HAL_SPI_Transmit+0xca>
 800277a:	9301      	str	r3, [sp, #4]
 800277c:	6823      	ldr	r3, [r4, #0]
 800277e:	68da      	ldr	r2, [r3, #12]
 8002780:	9201      	str	r2, [sp, #4]
 8002782:	689b      	ldr	r3, [r3, #8]
 8002784:	9301      	str	r3, [sp, #4]
 8002786:	9b01      	ldr	r3, [sp, #4]
 8002788:	6e20      	ldr	r0, [r4, #96]	; 0x60
 800278a:	3000      	adds	r0, #0
 800278c:	bf18      	it	ne
 800278e:	2001      	movne	r0, #1
 8002790:	e011      	b.n	80027b6 <HAL_SPI_Transmit+0xf8>
 8002792:	6822      	ldr	r2, [r4, #0]
 8002794:	6893      	ldr	r3, [r2, #8]
 8002796:	0798      	lsls	r0, r3, #30
 8002798:	d505      	bpl.n	80027a6 <HAL_SPI_Transmit+0xe8>
 800279a:	6ba3      	ldr	r3, [r4, #56]	; 0x38
 800279c:	f833 1b02 	ldrh.w	r1, [r3], #2
 80027a0:	60d1      	str	r1, [r2, #12]
 80027a2:	63a3      	str	r3, [r4, #56]	; 0x38
 80027a4:	e7d9      	b.n	800275a <HAL_SPI_Transmit+0x9c>
 80027a6:	f7fd fe93 	bl	80004d0 <HAL_GetTick>
 80027aa:	1bc0      	subs	r0, r0, r7
 80027ac:	42b0      	cmp	r0, r6
 80027ae:	d3d8      	bcc.n	8002762 <HAL_SPI_Transmit+0xa4>
 80027b0:	1c71      	adds	r1, r6, #1
 80027b2:	d0d6      	beq.n	8002762 <HAL_SPI_Transmit+0xa4>
 80027b4:	2003      	movs	r0, #3
 80027b6:	2301      	movs	r3, #1
 80027b8:	f884 305d 	strb.w	r3, [r4, #93]	; 0x5d
 80027bc:	2300      	movs	r3, #0
 80027be:	f884 305c 	strb.w	r3, [r4, #92]	; 0x5c
 80027c2:	b002      	add	sp, #8
 80027c4:	e8bd 81f0 	ldmia.w	sp!, {r4, r5, r6, r7, r8, pc}
 80027c8:	b113      	cbz	r3, 80027d0 <HAL_SPI_Transmit+0x112>
 80027ca:	f1b8 0f01 	cmp.w	r8, #1
 80027ce:	d112      	bne.n	80027f6 <HAL_SPI_Transmit+0x138>
 80027d0:	8fe3      	ldrh	r3, [r4, #62]	; 0x3e
 80027d2:	2b01      	cmp	r3, #1
 80027d4:	d906      	bls.n	80027e4 <HAL_SPI_Transmit+0x126>
 80027d6:	f835 3b02 	ldrh.w	r3, [r5], #2
 80027da:	60c3      	str	r3, [r0, #12]
 80027dc:	63a5      	str	r5, [r4, #56]	; 0x38
 80027de:	8fe3      	ldrh	r3, [r4, #62]	; 0x3e
 80027e0:	3b02      	subs	r3, #2
 80027e2:	e006      	b.n	80027f2 <HAL_SPI_Transmit+0x134>
 80027e4:	782b      	ldrb	r3, [r5, #0]
 80027e6:	7303      	strb	r3, [r0, #12]
 80027e8:	6ba3      	ldr	r3, [r4, #56]	; 0x38
 80027ea:	3301      	adds	r3, #1
 80027ec:	63a3      	str	r3, [r4, #56]	; 0x38
 80027ee:	8fe3      	ldrh	r3, [r4, #62]	; 0x3e
 80027f0:	3b01      	subs	r3, #1
 80027f2:	b29b      	uxth	r3, r3
 80027f4:	87e3      	strh	r3, [r4, #62]	; 0x3e
 80027f6:	8fe3      	ldrh	r3, [r4, #62]	; 0x3e
 80027f8:	b29b      	uxth	r3, r3
 80027fa:	2b00      	cmp	r3, #0
 80027fc:	d0b4      	beq.n	8002768 <HAL_SPI_Transmit+0xaa>
 80027fe:	6823      	ldr	r3, [r4, #0]
 8002800:	689a      	ldr	r2, [r3, #8]
 8002802:	0792      	lsls	r2, r2, #30
 8002804:	d50b      	bpl.n	800281e <HAL_SPI_Transmit+0x160>
 8002806:	8fe2      	ldrh	r2, [r4, #62]	; 0x3e
 8002808:	6ba0      	ldr	r0, [r4, #56]	; 0x38
 800280a:	2a01      	cmp	r2, #1
 800280c:	d904      	bls.n	8002818 <HAL_SPI_Transmit+0x15a>
 800280e:	f830 2b02 	ldrh.w	r2, [r0], #2
 8002812:	60da      	str	r2, [r3, #12]
 8002814:	63a0      	str	r0, [r4, #56]	; 0x38
 8002816:	e7e2      	b.n	80027de <HAL_SPI_Transmit+0x120>
 8002818:	7802      	ldrb	r2, [r0, #0]
 800281a:	731a      	strb	r2, [r3, #12]
 800281c:	e7e4      	b.n	80027e8 <HAL_SPI_Transmit+0x12a>
 800281e:	f7fd fe57 	bl	80004d0 <HAL_GetTick>
 8002822:	1bc0      	subs	r0, r0, r7
 8002824:	42b0      	cmp	r0, r6
 8002826:	d3e6      	bcc.n	80027f6 <HAL_SPI_Transmit+0x138>
 8002828:	1c73      	adds	r3, r6, #1
 800282a:	d0e4      	beq.n	80027f6 <HAL_SPI_Transmit+0x138>
 800282c:	e7c2      	b.n	80027b4 <HAL_SPI_Transmit+0xf6>
 800282e:	2320      	movs	r3, #32
 8002830:	6623      	str	r3, [r4, #96]	; 0x60
 8002832:	e7a0      	b.n	8002776 <HAL_SPI_Transmit+0xb8>
 8002834:	2002      	movs	r0, #2
 8002836:	e7be      	b.n	80027b6 <HAL_SPI_Transmit+0xf8>
 8002838:	2002      	movs	r0, #2
 800283a:	e7c2      	b.n	80027c2 <HAL_SPI_Transmit+0x104>

0800283c <HAL_SPI_TransmitReceive>:
 800283c:	e92d 43f8 	stmdb	sp!, {r3, r4, r5, r6, r7, r8, r9, lr}
 8002840:	461e      	mov	r6, r3
 8002842:	f890 305c 	ldrb.w	r3, [r0, #92]	; 0x5c
 8002846:	9f08      	ldr	r7, [sp, #32]
 8002848:	2b01      	cmp	r3, #1
 800284a:	4604      	mov	r4, r0
 800284c:	460d      	mov	r5, r1
 800284e:	4691      	mov	r9, r2
 8002850:	f000 8111 	beq.w	8002a76 <HAL_SPI_TransmitReceive+0x23a>
 8002854:	2301      	movs	r3, #1
 8002856:	f880 305c 	strb.w	r3, [r0, #92]	; 0x5c
 800285a:	f7fd fe39 	bl	80004d0 <HAL_GetTick>
 800285e:	f894 305d 	ldrb.w	r3, [r4, #93]	; 0x5d
 8002862:	6861      	ldr	r1, [r4, #4]
 8002864:	b2db      	uxtb	r3, r3
 8002866:	2b01      	cmp	r3, #1
 8002868:	4680      	mov	r8, r0
 800286a:	d00a      	beq.n	8002882 <HAL_SPI_TransmitReceive+0x46>
 800286c:	f5b1 7f82 	cmp.w	r1, #260	; 0x104
 8002870:	f040 80ff 	bne.w	8002a72 <HAL_SPI_TransmitReceive+0x236>
 8002874:	68a0      	ldr	r0, [r4, #8]
 8002876:	2800      	cmp	r0, #0
 8002878:	f040 80fb 	bne.w	8002a72 <HAL_SPI_TransmitReceive+0x236>
 800287c:	2b04      	cmp	r3, #4
 800287e:	f040 80f8 	bne.w	8002a72 <HAL_SPI_TransmitReceive+0x236>
 8002882:	2d00      	cmp	r5, #0
 8002884:	d049      	beq.n	800291a <HAL_SPI_TransmitReceive+0xde>
 8002886:	f1b9 0f00 	cmp.w	r9, #0
 800288a:	d046      	beq.n	800291a <HAL_SPI_TransmitReceive+0xde>
 800288c:	2e00      	cmp	r6, #0
 800288e:	d044      	beq.n	800291a <HAL_SPI_TransmitReceive+0xde>
 8002890:	f894 305d 	ldrb.w	r3, [r4, #93]	; 0x5d
 8002894:	68e2      	ldr	r2, [r4, #12]
 8002896:	6820      	ldr	r0, [r4, #0]
 8002898:	f8c4 9040 	str.w	r9, [r4, #64]	; 0x40
 800289c:	2b04      	cmp	r3, #4
 800289e:	bf1c      	itt	ne
 80028a0:	2305      	movne	r3, #5
 80028a2:	f884 305d 	strbne.w	r3, [r4, #93]	; 0x5d
 80028a6:	2300      	movs	r3, #0
 80028a8:	6623      	str	r3, [r4, #96]	; 0x60
 80028aa:	f5b2 6fe0 	cmp.w	r2, #1792	; 0x700
 80028ae:	f8a4 6046 	strh.w	r6, [r4, #70]	; 0x46
 80028b2:	87e6      	strh	r6, [r4, #62]	; 0x3e
 80028b4:	e9c4 3313 	strd	r3, r3, [r4, #76]	; 0x4c
 80028b8:	f8a4 6044 	strh.w	r6, [r4, #68]	; 0x44
 80028bc:	63a5      	str	r5, [r4, #56]	; 0x38
 80028be:	87a6      	strh	r6, [r4, #60]	; 0x3c
 80028c0:	6843      	ldr	r3, [r0, #4]
 80028c2:	d801      	bhi.n	80028c8 <HAL_SPI_TransmitReceive+0x8c>
 80028c4:	2e01      	cmp	r6, #1
 80028c6:	d92a      	bls.n	800291e <HAL_SPI_TransmitReceive+0xe2>
 80028c8:	f423 5380 	bic.w	r3, r3, #4096	; 0x1000
 80028cc:	6043      	str	r3, [r0, #4]
 80028ce:	6803      	ldr	r3, [r0, #0]
 80028d0:	065b      	lsls	r3, r3, #25
 80028d2:	bf5e      	ittt	pl
 80028d4:	6803      	ldrpl	r3, [r0, #0]
 80028d6:	f043 0340 	orrpl.w	r3, r3, #64	; 0x40
 80028da:	6003      	strpl	r3, [r0, #0]
 80028dc:	f5b2 6fe0 	cmp.w	r2, #1792	; 0x700
 80028e0:	d956      	bls.n	8002990 <HAL_SPI_TransmitReceive+0x154>
 80028e2:	b109      	cbz	r1, 80028e8 <HAL_SPI_TransmitReceive+0xac>
 80028e4:	2e01      	cmp	r6, #1
 80028e6:	d107      	bne.n	80028f8 <HAL_SPI_TransmitReceive+0xbc>
 80028e8:	f835 3b02 	ldrh.w	r3, [r5], #2
 80028ec:	60c3      	str	r3, [r0, #12]
 80028ee:	8fe3      	ldrh	r3, [r4, #62]	; 0x3e
 80028f0:	63a5      	str	r5, [r4, #56]	; 0x38
 80028f2:	3b01      	subs	r3, #1
 80028f4:	b29b      	uxth	r3, r3
 80028f6:	87e3      	strh	r3, [r4, #62]	; 0x3e
 80028f8:	2501      	movs	r5, #1
 80028fa:	8fe3      	ldrh	r3, [r4, #62]	; 0x3e
 80028fc:	b29b      	uxth	r3, r3
 80028fe:	b98b      	cbnz	r3, 8002924 <HAL_SPI_TransmitReceive+0xe8>
 8002900:	f8b4 3046 	ldrh.w	r3, [r4, #70]	; 0x46
 8002904:	b29b      	uxth	r3, r3
 8002906:	b96b      	cbnz	r3, 8002924 <HAL_SPI_TransmitReceive+0xe8>
 8002908:	4642      	mov	r2, r8
 800290a:	4639      	mov	r1, r7
 800290c:	4620      	mov	r0, r4
 800290e:	f7ff fe4a 	bl	80025a6 <SPI_EndRxTxTransaction>
 8002912:	2800      	cmp	r0, #0
 8002914:	d034      	beq.n	8002980 <HAL_SPI_TransmitReceive+0x144>
 8002916:	2320      	movs	r3, #32
 8002918:	6623      	str	r3, [r4, #96]	; 0x60
 800291a:	2001      	movs	r0, #1
 800291c:	e030      	b.n	8002980 <HAL_SPI_TransmitReceive+0x144>
 800291e:	f443 5380 	orr.w	r3, r3, #4096	; 0x1000
 8002922:	e7d3      	b.n	80028cc <HAL_SPI_TransmitReceive+0x90>
 8002924:	6822      	ldr	r2, [r4, #0]
 8002926:	6893      	ldr	r3, [r2, #8]
 8002928:	0799      	lsls	r1, r3, #30
 800292a:	d50d      	bpl.n	8002948 <HAL_SPI_TransmitReceive+0x10c>
 800292c:	8fe3      	ldrh	r3, [r4, #62]	; 0x3e
 800292e:	b29b      	uxth	r3, r3
 8002930:	b153      	cbz	r3, 8002948 <HAL_SPI_TransmitReceive+0x10c>
 8002932:	b14d      	cbz	r5, 8002948 <HAL_SPI_TransmitReceive+0x10c>
 8002934:	6ba3      	ldr	r3, [r4, #56]	; 0x38
 8002936:	f833 1b02 	ldrh.w	r1, [r3], #2
 800293a:	60d1      	str	r1, [r2, #12]
 800293c:	63a3      	str	r3, [r4, #56]	; 0x38
 800293e:	8fe3      	ldrh	r3, [r4, #62]	; 0x3e
 8002940:	3b01      	subs	r3, #1
 8002942:	b29b      	uxth	r3, r3
 8002944:	87e3      	strh	r3, [r4, #62]	; 0x3e
 8002946:	2500      	movs	r5, #0
 8002948:	6893      	ldr	r3, [r2, #8]
 800294a:	07db      	lsls	r3, r3, #31
 800294c:	d50f      	bpl.n	800296e <HAL_SPI_TransmitReceive+0x132>
 800294e:	f8b4 3046 	ldrh.w	r3, [r4, #70]	; 0x46
 8002952:	b29b      	uxth	r3, r3
 8002954:	b15b      	cbz	r3, 800296e <HAL_SPI_TransmitReceive+0x132>
 8002956:	6c23      	ldr	r3, [r4, #64]	; 0x40
 8002958:	68d2      	ldr	r2, [r2, #12]
 800295a:	f823 2b02 	strh.w	r2, [r3], #2
 800295e:	6423      	str	r3, [r4, #64]	; 0x40
 8002960:	f8b4 3046 	ldrh.w	r3, [r4, #70]	; 0x46
 8002964:	3b01      	subs	r3, #1
 8002966:	b29b      	uxth	r3, r3
 8002968:	f8a4 3046 	strh.w	r3, [r4, #70]	; 0x46
 800296c:	2501      	movs	r5, #1
 800296e:	f7fd fdaf 	bl	80004d0 <HAL_GetTick>
 8002972:	eba0 0008 	sub.w	r0, r0, r8
 8002976:	4287      	cmp	r7, r0
 8002978:	d8bf      	bhi.n	80028fa <HAL_SPI_TransmitReceive+0xbe>
 800297a:	1c7e      	adds	r6, r7, #1
 800297c:	d0bd      	beq.n	80028fa <HAL_SPI_TransmitReceive+0xbe>
 800297e:	2003      	movs	r0, #3
 8002980:	2301      	movs	r3, #1
 8002982:	f884 305d 	strb.w	r3, [r4, #93]	; 0x5d
 8002986:	2300      	movs	r3, #0
 8002988:	f884 305c 	strb.w	r3, [r4, #92]	; 0x5c
 800298c:	e8bd 83f8 	ldmia.w	sp!, {r3, r4, r5, r6, r7, r8, r9, pc}
 8002990:	b109      	cbz	r1, 8002996 <HAL_SPI_TransmitReceive+0x15a>
 8002992:	2e01      	cmp	r6, #1
 8002994:	d10a      	bne.n	80029ac <HAL_SPI_TransmitReceive+0x170>
 8002996:	8fe3      	ldrh	r3, [r4, #62]	; 0x3e
 8002998:	2b01      	cmp	r3, #1
 800299a:	d94e      	bls.n	8002a3a <HAL_SPI_TransmitReceive+0x1fe>
 800299c:	f835 3b02 	ldrh.w	r3, [r5], #2
 80029a0:	60c3      	str	r3, [r0, #12]
 80029a2:	8fe3      	ldrh	r3, [r4, #62]	; 0x3e
 80029a4:	63a5      	str	r5, [r4, #56]	; 0x38
 80029a6:	3b02      	subs	r3, #2
 80029a8:	b29b      	uxth	r3, r3
 80029aa:	87e3      	strh	r3, [r4, #62]	; 0x3e
 80029ac:	2501      	movs	r5, #1
 80029ae:	8fe3      	ldrh	r3, [r4, #62]	; 0x3e
 80029b0:	b29b      	uxth	r3, r3
 80029b2:	b923      	cbnz	r3, 80029be <HAL_SPI_TransmitReceive+0x182>
 80029b4:	f8b4 3046 	ldrh.w	r3, [r4, #70]	; 0x46
 80029b8:	b29b      	uxth	r3, r3
 80029ba:	2b00      	cmp	r3, #0
 80029bc:	d0a4      	beq.n	8002908 <HAL_SPI_TransmitReceive+0xcc>
 80029be:	6822      	ldr	r2, [r4, #0]
 80029c0:	6893      	ldr	r3, [r2, #8]
 80029c2:	0798      	lsls	r0, r3, #30
 80029c4:	d510      	bpl.n	80029e8 <HAL_SPI_TransmitReceive+0x1ac>
 80029c6:	8fe3      	ldrh	r3, [r4, #62]	; 0x3e
 80029c8:	b29b      	uxth	r3, r3
 80029ca:	b16b      	cbz	r3, 80029e8 <HAL_SPI_TransmitReceive+0x1ac>
 80029cc:	b165      	cbz	r5, 80029e8 <HAL_SPI_TransmitReceive+0x1ac>
 80029ce:	8fe1      	ldrh	r1, [r4, #62]	; 0x3e
 80029d0:	6ba3      	ldr	r3, [r4, #56]	; 0x38
 80029d2:	2901      	cmp	r1, #1
 80029d4:	d939      	bls.n	8002a4a <HAL_SPI_TransmitReceive+0x20e>
 80029d6:	f833 1b02 	ldrh.w	r1, [r3], #2
 80029da:	60d1      	str	r1, [r2, #12]
 80029dc:	63a3      	str	r3, [r4, #56]	; 0x38
 80029de:	8fe3      	ldrh	r3, [r4, #62]	; 0x3e
 80029e0:	3b02      	subs	r3, #2
 80029e2:	b29b      	uxth	r3, r3
 80029e4:	87e3      	strh	r3, [r4, #62]	; 0x3e
 80029e6:	2500      	movs	r5, #0
 80029e8:	6822      	ldr	r2, [r4, #0]
 80029ea:	6893      	ldr	r3, [r2, #8]
 80029ec:	07d9      	lsls	r1, r3, #31
 80029ee:	d51b      	bpl.n	8002a28 <HAL_SPI_TransmitReceive+0x1ec>
 80029f0:	f8b4 3046 	ldrh.w	r3, [r4, #70]	; 0x46
 80029f4:	b29b      	uxth	r3, r3
 80029f6:	b1bb      	cbz	r3, 8002a28 <HAL_SPI_TransmitReceive+0x1ec>
 80029f8:	f8b4 1046 	ldrh.w	r1, [r4, #70]	; 0x46
 80029fc:	6c23      	ldr	r3, [r4, #64]	; 0x40
 80029fe:	2901      	cmp	r1, #1
 8002a00:	d92b      	bls.n	8002a5a <HAL_SPI_TransmitReceive+0x21e>
 8002a02:	68d1      	ldr	r1, [r2, #12]
 8002a04:	f823 1b02 	strh.w	r1, [r3], #2
 8002a08:	6423      	str	r3, [r4, #64]	; 0x40
 8002a0a:	f8b4 3046 	ldrh.w	r3, [r4, #70]	; 0x46
 8002a0e:	3b02      	subs	r3, #2
 8002a10:	b29b      	uxth	r3, r3
 8002a12:	f8a4 3046 	strh.w	r3, [r4, #70]	; 0x46
 8002a16:	f8b4 3046 	ldrh.w	r3, [r4, #70]	; 0x46
 8002a1a:	2b01      	cmp	r3, #1
 8002a1c:	d803      	bhi.n	8002a26 <HAL_SPI_TransmitReceive+0x1ea>
 8002a1e:	6853      	ldr	r3, [r2, #4]
 8002a20:	f443 5380 	orr.w	r3, r3, #4096	; 0x1000
 8002a24:	6053      	str	r3, [r2, #4]
 8002a26:	2501      	movs	r5, #1
 8002a28:	f7fd fd52 	bl	80004d0 <HAL_GetTick>
 8002a2c:	eba0 0008 	sub.w	r0, r0, r8
 8002a30:	4287      	cmp	r7, r0
 8002a32:	d8bc      	bhi.n	80029ae <HAL_SPI_TransmitReceive+0x172>
 8002a34:	1c7b      	adds	r3, r7, #1
 8002a36:	d0ba      	beq.n	80029ae <HAL_SPI_TransmitReceive+0x172>
 8002a38:	e7a1      	b.n	800297e <HAL_SPI_TransmitReceive+0x142>
 8002a3a:	782b      	ldrb	r3, [r5, #0]
 8002a3c:	7303      	strb	r3, [r0, #12]
 8002a3e:	6ba3      	ldr	r3, [r4, #56]	; 0x38
 8002a40:	3301      	adds	r3, #1
 8002a42:	63a3      	str	r3, [r4, #56]	; 0x38
 8002a44:	8fe3      	ldrh	r3, [r4, #62]	; 0x3e
 8002a46:	3b01      	subs	r3, #1
 8002a48:	e7ae      	b.n	80029a8 <HAL_SPI_TransmitReceive+0x16c>
 8002a4a:	781b      	ldrb	r3, [r3, #0]
 8002a4c:	7313      	strb	r3, [r2, #12]
 8002a4e:	6ba3      	ldr	r3, [r4, #56]	; 0x38
 8002a50:	3301      	adds	r3, #1
 8002a52:	63a3      	str	r3, [r4, #56]	; 0x38
 8002a54:	8fe3      	ldrh	r3, [r4, #62]	; 0x3e
 8002a56:	3b01      	subs	r3, #1
 8002a58:	e7c3      	b.n	80029e2 <HAL_SPI_TransmitReceive+0x1a6>
 8002a5a:	7b12      	ldrb	r2, [r2, #12]
 8002a5c:	701a      	strb	r2, [r3, #0]
 8002a5e:	6c23      	ldr	r3, [r4, #64]	; 0x40
 8002a60:	3301      	adds	r3, #1
 8002a62:	6423      	str	r3, [r4, #64]	; 0x40
 8002a64:	f8b4 3046 	ldrh.w	r3, [r4, #70]	; 0x46
 8002a68:	3b01      	subs	r3, #1
 8002a6a:	b29b      	uxth	r3, r3
 8002a6c:	f8a4 3046 	strh.w	r3, [r4, #70]	; 0x46
 8002a70:	e7d9      	b.n	8002a26 <HAL_SPI_TransmitReceive+0x1ea>
 8002a72:	2002      	movs	r0, #2
 8002a74:	e784      	b.n	8002980 <HAL_SPI_TransmitReceive+0x144>
 8002a76:	2002      	movs	r0, #2
 8002a78:	e788      	b.n	800298c <HAL_SPI_TransmitReceive+0x150>

08002a7a <HAL_SPI_Receive>:
 8002a7a:	e92d 41f3 	stmdb	sp!, {r0, r1, r4, r5, r6, r7, r8, lr}
 8002a7e:	461d      	mov	r5, r3
 8002a80:	6843      	ldr	r3, [r0, #4]
 8002a82:	f5b3 7f82 	cmp.w	r3, #260	; 0x104
 8002a86:	4604      	mov	r4, r0
 8002a88:	4688      	mov	r8, r1
 8002a8a:	4617      	mov	r7, r2
 8002a8c:	d10c      	bne.n	8002aa8 <HAL_SPI_Receive+0x2e>
 8002a8e:	6883      	ldr	r3, [r0, #8]
 8002a90:	b953      	cbnz	r3, 8002aa8 <HAL_SPI_Receive+0x2e>
 8002a92:	2304      	movs	r3, #4
 8002a94:	f880 305d 	strb.w	r3, [r0, #93]	; 0x5d
 8002a98:	4613      	mov	r3, r2
 8002a9a:	9500      	str	r5, [sp, #0]
 8002a9c:	460a      	mov	r2, r1
 8002a9e:	f7ff fecd 	bl	800283c <HAL_SPI_TransmitReceive>
 8002aa2:	b002      	add	sp, #8
 8002aa4:	e8bd 81f0 	ldmia.w	sp!, {r4, r5, r6, r7, r8, pc}
 8002aa8:	f894 305c 	ldrb.w	r3, [r4, #92]	; 0x5c
 8002aac:	2b01      	cmp	r3, #1
 8002aae:	f000 8092 	beq.w	8002bd6 <HAL_SPI_Receive+0x15c>
 8002ab2:	2301      	movs	r3, #1
 8002ab4:	f884 305c 	strb.w	r3, [r4, #92]	; 0x5c
 8002ab8:	f7fd fd0a 	bl	80004d0 <HAL_GetTick>
 8002abc:	4606      	mov	r6, r0
 8002abe:	f894 005d 	ldrb.w	r0, [r4, #93]	; 0x5d
 8002ac2:	b2c0      	uxtb	r0, r0
 8002ac4:	2801      	cmp	r0, #1
 8002ac6:	f040 8084 	bne.w	8002bd2 <HAL_SPI_Receive+0x158>
 8002aca:	f1b8 0f00 	cmp.w	r8, #0
 8002ace:	d06e      	beq.n	8002bae <HAL_SPI_Receive+0x134>
 8002ad0:	2f00      	cmp	r7, #0
 8002ad2:	d06c      	beq.n	8002bae <HAL_SPI_Receive+0x134>
 8002ad4:	2304      	movs	r3, #4
 8002ad6:	f884 305d 	strb.w	r3, [r4, #93]	; 0x5d
 8002ada:	6821      	ldr	r1, [r4, #0]
 8002adc:	68e2      	ldr	r2, [r4, #12]
 8002ade:	f8c4 8040 	str.w	r8, [r4, #64]	; 0x40
 8002ae2:	2300      	movs	r3, #0
 8002ae4:	6623      	str	r3, [r4, #96]	; 0x60
 8002ae6:	f8a4 7046 	strh.w	r7, [r4, #70]	; 0x46
 8002aea:	87e3      	strh	r3, [r4, #62]	; 0x3e
 8002aec:	63a3      	str	r3, [r4, #56]	; 0x38
 8002aee:	87a3      	strh	r3, [r4, #60]	; 0x3c
 8002af0:	e9c4 3313 	strd	r3, r3, [r4, #76]	; 0x4c
 8002af4:	684b      	ldr	r3, [r1, #4]
 8002af6:	f8a4 7044 	strh.w	r7, [r4, #68]	; 0x44
 8002afa:	f5b2 6fe0 	cmp.w	r2, #1792	; 0x700
 8002afe:	bf8c      	ite	hi
 8002b00:	f423 5380 	bichi.w	r3, r3, #4096	; 0x1000
 8002b04:	f443 5380 	orrls.w	r3, r3, #4096	; 0x1000
 8002b08:	604b      	str	r3, [r1, #4]
 8002b0a:	68a3      	ldr	r3, [r4, #8]
 8002b0c:	f5b3 4f00 	cmp.w	r3, #32768	; 0x8000
 8002b10:	d107      	bne.n	8002b22 <HAL_SPI_Receive+0xa8>
 8002b12:	680b      	ldr	r3, [r1, #0]
 8002b14:	f023 0340 	bic.w	r3, r3, #64	; 0x40
 8002b18:	600b      	str	r3, [r1, #0]
 8002b1a:	680b      	ldr	r3, [r1, #0]
 8002b1c:	f423 4380 	bic.w	r3, r3, #16384	; 0x4000
 8002b20:	600b      	str	r3, [r1, #0]
 8002b22:	680b      	ldr	r3, [r1, #0]
 8002b24:	065f      	lsls	r7, r3, #25
 8002b26:	bf5e      	ittt	pl
 8002b28:	680b      	ldrpl	r3, [r1, #0]
 8002b2a:	f043 0340 	orrpl.w	r3, r3, #64	; 0x40
 8002b2e:	600b      	strpl	r3, [r1, #0]
 8002b30:	f5b2 6fe0 	cmp.w	r2, #1792	; 0x700
 8002b34:	d923      	bls.n	8002b7e <HAL_SPI_Receive+0x104>
 8002b36:	f8b4 3046 	ldrh.w	r3, [r4, #70]	; 0x46
 8002b3a:	b29b      	uxth	r3, r3
 8002b3c:	b323      	cbz	r3, 8002b88 <HAL_SPI_Receive+0x10e>
 8002b3e:	6823      	ldr	r3, [r4, #0]
 8002b40:	689a      	ldr	r2, [r3, #8]
 8002b42:	07d2      	lsls	r2, r2, #31
 8002b44:	d53a      	bpl.n	8002bbc <HAL_SPI_Receive+0x142>
 8002b46:	68da      	ldr	r2, [r3, #12]
 8002b48:	6c23      	ldr	r3, [r4, #64]	; 0x40
 8002b4a:	f823 2b02 	strh.w	r2, [r3], #2
 8002b4e:	6423      	str	r3, [r4, #64]	; 0x40
 8002b50:	f8b4 3046 	ldrh.w	r3, [r4, #70]	; 0x46
 8002b54:	3b01      	subs	r3, #1
 8002b56:	b29b      	uxth	r3, r3
 8002b58:	f8a4 3046 	strh.w	r3, [r4, #70]	; 0x46
 8002b5c:	e7eb      	b.n	8002b36 <HAL_SPI_Receive+0xbc>
 8002b5e:	6823      	ldr	r3, [r4, #0]
 8002b60:	689a      	ldr	r2, [r3, #8]
 8002b62:	07d0      	lsls	r0, r2, #31
 8002b64:	d51b      	bpl.n	8002b9e <HAL_SPI_Receive+0x124>
 8002b66:	6c22      	ldr	r2, [r4, #64]	; 0x40
 8002b68:	7b1b      	ldrb	r3, [r3, #12]
 8002b6a:	7013      	strb	r3, [r2, #0]
 8002b6c:	6c23      	ldr	r3, [r4, #64]	; 0x40
 8002b6e:	3301      	adds	r3, #1
 8002b70:	6423      	str	r3, [r4, #64]	; 0x40
 8002b72:	f8b4 3046 	ldrh.w	r3, [r4, #70]	; 0x46
 8002b76:	3b01      	subs	r3, #1
 8002b78:	b29b      	uxth	r3, r3
 8002b7a:	f8a4 3046 	strh.w	r3, [r4, #70]	; 0x46
 8002b7e:	f8b4 3046 	ldrh.w	r3, [r4, #70]	; 0x46
 8002b82:	b29b      	uxth	r3, r3
 8002b84:	2b00      	cmp	r3, #0
 8002b86:	d1ea      	bne.n	8002b5e <HAL_SPI_Receive+0xe4>
 8002b88:	4632      	mov	r2, r6
 8002b8a:	4629      	mov	r1, r5
 8002b8c:	4620      	mov	r0, r4
 8002b8e:	f7ff fcd3 	bl	8002538 <SPI_EndRxTransaction>
 8002b92:	b9d8      	cbnz	r0, 8002bcc <HAL_SPI_Receive+0x152>
 8002b94:	6e20      	ldr	r0, [r4, #96]	; 0x60
 8002b96:	3000      	adds	r0, #0
 8002b98:	bf18      	it	ne
 8002b9a:	2001      	movne	r0, #1
 8002b9c:	e007      	b.n	8002bae <HAL_SPI_Receive+0x134>
 8002b9e:	f7fd fc97 	bl	80004d0 <HAL_GetTick>
 8002ba2:	1b80      	subs	r0, r0, r6
 8002ba4:	42a8      	cmp	r0, r5
 8002ba6:	d3ea      	bcc.n	8002b7e <HAL_SPI_Receive+0x104>
 8002ba8:	1c69      	adds	r1, r5, #1
 8002baa:	d0e8      	beq.n	8002b7e <HAL_SPI_Receive+0x104>
 8002bac:	2003      	movs	r0, #3
 8002bae:	2301      	movs	r3, #1
 8002bb0:	f884 305d 	strb.w	r3, [r4, #93]	; 0x5d
 8002bb4:	2300      	movs	r3, #0
 8002bb6:	f884 305c 	strb.w	r3, [r4, #92]	; 0x5c
 8002bba:	e772      	b.n	8002aa2 <HAL_SPI_Receive+0x28>
 8002bbc:	f7fd fc88 	bl	80004d0 <HAL_GetTick>
 8002bc0:	1b80      	subs	r0, r0, r6
 8002bc2:	42a8      	cmp	r0, r5
 8002bc4:	d3b7      	bcc.n	8002b36 <HAL_SPI_Receive+0xbc>
 8002bc6:	1c6b      	adds	r3, r5, #1
 8002bc8:	d0b5      	beq.n	8002b36 <HAL_SPI_Receive+0xbc>
 8002bca:	e7ef      	b.n	8002bac <HAL_SPI_Receive+0x132>
 8002bcc:	2320      	movs	r3, #32
 8002bce:	6623      	str	r3, [r4, #96]	; 0x60
 8002bd0:	e7e0      	b.n	8002b94 <HAL_SPI_Receive+0x11a>
 8002bd2:	2002      	movs	r0, #2
 8002bd4:	e7eb      	b.n	8002bae <HAL_SPI_Receive+0x134>
 8002bd6:	2002      	movs	r0, #2
 8002bd8:	e763      	b.n	8002aa2 <HAL_SPI_Receive+0x28>

08002bda <_ZN6ClockMC1Ev>:
 8002bda:	b510      	push	{r4, lr}
 8002bdc:	2214      	movs	r2, #20
 8002bde:	4604      	mov	r4, r0
 8002be0:	2100      	movs	r1, #0
 8002be2:	3008      	adds	r0, #8
 8002be4:	f002 fa4a 	bl	800507c <memset>
 8002be8:	2300      	movs	r3, #0
 8002bea:	61e3      	str	r3, [r4, #28]
 8002bec:	f884 3024 	strb.w	r3, [r4, #36]	; 0x24
 8002bf0:	4620      	mov	r0, r4
 8002bf2:	bd10      	pop	{r4, pc}

08002bf4 <_ZN6ClockM15updateLocalVarsEv>:
 8002bf4:	b538      	push	{r3, r4, r5, lr}
 8002bf6:	4c08      	ldr	r4, [pc, #32]	; (8002c18 <_ZN6ClockM15updateLocalVarsEv+0x24>)
 8002bf8:	4605      	mov	r5, r0
 8002bfa:	f100 0108 	add.w	r1, r0, #8
 8002bfe:	2200      	movs	r2, #0
 8002c00:	4620      	mov	r0, r4
 8002c02:	f7ff fb72 	bl	80022ea <HAL_RTC_GetTime>
 8002c06:	f105 011c 	add.w	r1, r5, #28
 8002c0a:	4620      	mov	r0, r4
 8002c0c:	2200      	movs	r2, #0
 8002c0e:	e8bd 4038 	ldmia.w	sp!, {r3, r4, r5, lr}
 8002c12:	f7ff bb8f 	b.w	8002334 <HAL_RTC_GetDate>
 8002c16:	bf00      	nop
 8002c18:	200003c0 	.word	0x200003c0

08002c1c <_ZN6ClockM15commitLocalVarsEv>:
 8002c1c:	b538      	push	{r3, r4, r5, lr}
 8002c1e:	4c08      	ldr	r4, [pc, #32]	; (8002c40 <_ZN6ClockM15commitLocalVarsEv+0x24>)
 8002c20:	4605      	mov	r5, r0
 8002c22:	f100 0108 	add.w	r1, r0, #8
 8002c26:	2200      	movs	r2, #0
 8002c28:	4620      	mov	r0, r4
 8002c2a:	f7ff f9f2 	bl	8002012 <HAL_RTC_SetTime>
 8002c2e:	f105 011c 	add.w	r1, r5, #28
 8002c32:	4620      	mov	r0, r4
 8002c34:	2200      	movs	r2, #0
 8002c36:	e8bd 4038 	ldmia.w	sp!, {r3, r4, r5, lr}
 8002c3a:	f7ff ba4c 	b.w	80020d6 <HAL_RTC_SetDate>
 8002c3e:	bf00      	nop
 8002c40:	200003c0 	.word	0x200003c0

08002c44 <_ZN6ClockM13advanceMinuteEv>:
 8002c44:	7a43      	ldrb	r3, [r0, #9]
 8002c46:	213c      	movs	r1, #60	; 0x3c
 8002c48:	1c5a      	adds	r2, r3, #1
 8002c4a:	fb92 f3f1 	sdiv	r3, r2, r1
 8002c4e:	fb01 2313 	mls	r3, r1, r3, r2
 8002c52:	b2db      	uxtb	r3, r3
 8002c54:	2200      	movs	r2, #0
 8002c56:	7243      	strb	r3, [r0, #9]
 8002c58:	7282      	strb	r2, [r0, #10]
 8002c5a:	4618      	mov	r0, r3
 8002c5c:	4770      	bx	lr

08002c5e <_ZN6ClockM11advanceHourEv>:
 8002c5e:	7a03      	ldrb	r3, [r0, #8]
 8002c60:	2118      	movs	r1, #24
 8002c62:	1c5a      	adds	r2, r3, #1
 8002c64:	fb92 f3f1 	sdiv	r3, r2, r1
 8002c68:	fb01 2313 	mls	r3, r1, r3, r2
 8002c6c:	b2db      	uxtb	r3, r3
 8002c6e:	2200      	movs	r2, #0
 8002c70:	7203      	strb	r3, [r0, #8]
 8002c72:	7282      	strb	r2, [r0, #10]
 8002c74:	4618      	mov	r0, r3
 8002c76:	4770      	bx	lr

08002c78 <_ZN6ClockM14decreaseMinuteEv>:
 8002c78:	7a43      	ldrb	r3, [r0, #9]
 8002c7a:	b90b      	cbnz	r3, 8002c80 <_ZN6ClockM14decreaseMinuteEv+0x8>
 8002c7c:	233c      	movs	r3, #60	; 0x3c
 8002c7e:	7243      	strb	r3, [r0, #9]
 8002c80:	7a43      	ldrb	r3, [r0, #9]
 8002c82:	3b01      	subs	r3, #1
 8002c84:	b2db      	uxtb	r3, r3
 8002c86:	2200      	movs	r2, #0
 8002c88:	7243      	strb	r3, [r0, #9]
 8002c8a:	7282      	strb	r2, [r0, #10]
 8002c8c:	4618      	mov	r0, r3
 8002c8e:	4770      	bx	lr

08002c90 <_ZN6ClockM12decreaseHourEv>:
 8002c90:	7a03      	ldrb	r3, [r0, #8]
 8002c92:	b90b      	cbnz	r3, 8002c98 <_ZN6ClockM12decreaseHourEv+0x8>
 8002c94:	2318      	movs	r3, #24
 8002c96:	7203      	strb	r3, [r0, #8]
 8002c98:	7a03      	ldrb	r3, [r0, #8]
 8002c9a:	3b01      	subs	r3, #1
 8002c9c:	b2db      	uxtb	r3, r3
 8002c9e:	2200      	movs	r2, #0
 8002ca0:	7203      	strb	r3, [r0, #8]
 8002ca2:	7282      	strb	r2, [r0, #10]
 8002ca4:	4618      	mov	r0, r3
 8002ca6:	4770      	bx	lr

08002ca8 <_ZN6ClockM12advanceMonthEv>:
 8002ca8:	7f41      	ldrb	r1, [r0, #29]
 8002caa:	220c      	movs	r2, #12
 8002cac:	fbb1 f3f2 	udiv	r3, r1, r2
 8002cb0:	fb02 1313 	mls	r3, r2, r3, r1
 8002cb4:	3301      	adds	r3, #1
 8002cb6:	b2db      	uxtb	r3, r3
 8002cb8:	7743      	strb	r3, [r0, #29]
 8002cba:	4618      	mov	r0, r3
 8002cbc:	4770      	bx	lr

08002cbe <_ZN6ClockM13decreaseMonthEv>:
 8002cbe:	7f43      	ldrb	r3, [r0, #29]
 8002cc0:	b90b      	cbnz	r3, 8002cc6 <_ZN6ClockM13decreaseMonthEv+0x8>
 8002cc2:	2318      	movs	r3, #24
 8002cc4:	7743      	strb	r3, [r0, #29]
 8002cc6:	7f43      	ldrb	r3, [r0, #29]
 8002cc8:	3b01      	subs	r3, #1
 8002cca:	7743      	strb	r3, [r0, #29]
 8002ccc:	7a00      	ldrb	r0, [r0, #8]
 8002cce:	4770      	bx	lr

08002cd0 <_Z10isLeapYearh>:
 8002cd0:	b120      	cbz	r0, 8002cdc <_Z10isLeapYearh+0xc>
 8002cd2:	f010 0f03 	tst.w	r0, #3
 8002cd6:	bf0c      	ite	eq
 8002cd8:	2001      	moveq	r0, #1
 8002cda:	2000      	movne	r0, #0
 8002cdc:	4770      	bx	lr
	...

08002ce0 <_ZN6ClockM10advanceDayEv>:
 8002ce0:	b510      	push	{r4, lr}
 8002ce2:	7f44      	ldrb	r4, [r0, #29]
 8002ce4:	7f81      	ldrb	r1, [r0, #30]
 8002ce6:	2c02      	cmp	r4, #2
 8002ce8:	4603      	mov	r3, r0
 8002cea:	d10c      	bne.n	8002d06 <_ZN6ClockM10advanceDayEv+0x26>
 8002cec:	7fc0      	ldrb	r0, [r0, #31]
 8002cee:	f7ff ffef 	bl	8002cd0 <_Z10isLeapYearh>
 8002cf2:	b140      	cbz	r0, 8002d06 <_ZN6ClockM10advanceDayEv+0x26>
 8002cf4:	201d      	movs	r0, #29
 8002cf6:	fbb1 f2f0 	udiv	r2, r1, r0
 8002cfa:	fb00 1212 	mls	r2, r0, r2, r1
 8002cfe:	3201      	adds	r2, #1
 8002d00:	779a      	strb	r2, [r3, #30]
 8002d02:	7f98      	ldrb	r0, [r3, #30]
 8002d04:	bd10      	pop	{r4, pc}
 8002d06:	4a02      	ldr	r2, [pc, #8]	; (8002d10 <_ZN6ClockM10advanceDayEv+0x30>)
 8002d08:	4422      	add	r2, r4
 8002d0a:	f812 0c01 	ldrb.w	r0, [r2, #-1]
 8002d0e:	e7f2      	b.n	8002cf6 <_ZN6ClockM10advanceDayEv+0x16>
 8002d10:	080050e4 	.word	0x080050e4

08002d14 <_ZN6ClockM11decreaseDayEv>:
 8002d14:	b508      	push	{r3, lr}
 8002d16:	7f82      	ldrb	r2, [r0, #30]
 8002d18:	2a01      	cmp	r2, #1
 8002d1a:	4603      	mov	r3, r0
 8002d1c:	d10f      	bne.n	8002d3e <_ZN6ClockM11decreaseDayEv+0x2a>
 8002d1e:	7f41      	ldrb	r1, [r0, #29]
 8002d20:	2902      	cmp	r1, #2
 8002d22:	d107      	bne.n	8002d34 <_ZN6ClockM11decreaseDayEv+0x20>
 8002d24:	7fc0      	ldrb	r0, [r0, #31]
 8002d26:	f7ff ffd3 	bl	8002cd0 <_Z10isLeapYearh>
 8002d2a:	b118      	cbz	r0, 8002d34 <_ZN6ClockM11decreaseDayEv+0x20>
 8002d2c:	221d      	movs	r2, #29
 8002d2e:	779a      	strb	r2, [r3, #30]
 8002d30:	7a18      	ldrb	r0, [r3, #8]
 8002d32:	bd08      	pop	{r3, pc}
 8002d34:	4a03      	ldr	r2, [pc, #12]	; (8002d44 <_ZN6ClockM11decreaseDayEv+0x30>)
 8002d36:	440a      	add	r2, r1
 8002d38:	f812 2c01 	ldrb.w	r2, [r2, #-1]
 8002d3c:	e7f7      	b.n	8002d2e <_ZN6ClockM11decreaseDayEv+0x1a>
 8002d3e:	3a01      	subs	r2, #1
 8002d40:	e7f5      	b.n	8002d2e <_ZN6ClockM11decreaseDayEv+0x1a>
 8002d42:	bf00      	nop
 8002d44:	080050e4 	.word	0x080050e4

08002d48 <_ZN6ClockM11advanceYearEv>:
 8002d48:	7fc3      	ldrb	r3, [r0, #31]
 8002d4a:	3301      	adds	r3, #1
 8002d4c:	b2da      	uxtb	r2, r3
 8002d4e:	2164      	movs	r1, #100	; 0x64
 8002d50:	fbb2 f3f1 	udiv	r3, r2, r1
 8002d54:	fb01 2313 	mls	r3, r1, r3, r2
 8002d58:	b2db      	uxtb	r3, r3
 8002d5a:	77c3      	strb	r3, [r0, #31]
 8002d5c:	4618      	mov	r0, r3
 8002d5e:	4770      	bx	lr

08002d60 <_ZN6ClockM12decreaseYearEv>:
 8002d60:	7fc3      	ldrb	r3, [r0, #31]
 8002d62:	b91b      	cbnz	r3, 8002d6c <_ZN6ClockM12decreaseYearEv+0xc>
 8002d64:	2363      	movs	r3, #99	; 0x63
 8002d66:	77c3      	strb	r3, [r0, #31]
 8002d68:	7fc0      	ldrb	r0, [r0, #31]
 8002d6a:	4770      	bx	lr
 8002d6c:	3b01      	subs	r3, #1
 8002d6e:	e7fa      	b.n	8002d66 <_ZN6ClockM12decreaseYearEv+0x6>

08002d70 <_ZN6ClockM12clearSecondsEv>:
 8002d70:	2300      	movs	r3, #0
 8002d72:	7283      	strb	r3, [r0, #10]
 8002d74:	60c3      	str	r3, [r0, #12]
 8002d76:	4770      	bx	lr

08002d78 <_ZN6ClockM8saveTimeEv>:
 8002d78:	f7ff bf50 	b.w	8002c1c <_ZN6ClockM15commitLocalVarsEv>

08002d7c <_ZN6ClockM10updateTimeEv>:
 8002d7c:	f7ff bf3a 	b.w	8002bf4 <_ZN6ClockM15updateLocalVarsEv>

08002d80 <_GLOBAL__sub_I__ZN6ClockM8instanceE>:
 8002d80:	4801      	ldr	r0, [pc, #4]	; (8002d88 <_GLOBAL__sub_I__ZN6ClockM8instanceE+0x8>)
 8002d82:	f7ff bf2a 	b.w	8002bda <_ZN6ClockMC1Ev>
 8002d86:	bf00      	nop
 8002d88:	2000009c 	.word	0x2000009c

08002d8c <_ZN8GForceUI14setSettingsPtrEP15WatchSettings_t>:
 8002d8c:	6141      	str	r1, [r0, #20]
 8002d8e:	4770      	bx	lr

08002d90 <_ZN8GForceUI24executeSleepSubscriptionEv>:
 8002d90:	4770      	bx	lr

08002d92 <_ZN8GForceUI4initEP14DisplayManagerP9GForceHALP3HAL>:
 8002d92:	e9c0 1203 	strd	r1, r2, [r0, #12]
 8002d96:	6083      	str	r3, [r0, #8]
 8002d98:	4770      	bx	lr

08002d9a <_ZThn4_N8GForceUI24executeSleepSubscriptionEv>:
 8002d9a:	4770      	bx	lr

08002d9c <_ZN6SleepM14requestProlongEh>:
 8002d9c:	4b03      	ldr	r3, [pc, #12]	; (8002dac <_ZN6SleepM14requestProlongEh+0x10>)
 8002d9e:	4601      	mov	r1, r0
 8002da0:	6818      	ldr	r0, [r3, #0]
 8002da2:	b108      	cbz	r0, 8002da8 <_ZN6SleepM14requestProlongEh+0xc>
 8002da4:	f001 bd75 	b.w	8004892 <_ZN6SleepM7prolongEh>
 8002da8:	4770      	bx	lr
 8002daa:	bf00      	nop
 8002dac:	20000058 	.word	0x20000058

08002db0 <_ZN8GForceUI15stateTransitionEv>:
 8002db0:	e92d 43f8 	stmdb	sp!, {r3, r4, r5, r6, r7, r8, r9, lr}
 8002db4:	7e03      	ldrb	r3, [r0, #24]
 8002db6:	2b01      	cmp	r3, #1
 8002db8:	4604      	mov	r4, r0
 8002dba:	d104      	bne.n	8002dc6 <_ZN8GForceUI15stateTransitionEv+0x16>
 8002dbc:	2302      	movs	r3, #2
 8002dbe:	7603      	strb	r3, [r0, #24]
 8002dc0:	2004      	movs	r0, #4
 8002dc2:	f7ff ffeb 	bl	8002d9c <_ZN6SleepM14requestProlongEh>
 8002dc6:	7e23      	ldrb	r3, [r4, #24]
 8002dc8:	2b10      	cmp	r3, #16
 8002dca:	d814      	bhi.n	8002df6 <_ZN8GForceUI15stateTransitionEv+0x46>
 8002dcc:	e8df f013 	tbh	[pc, r3, lsl #1]
 8002dd0:	00110011 	.word	0x00110011
 8002dd4:	00150015 	.word	0x00150015
 8002dd8:	009200d1 	.word	0x009200d1
 8002ddc:	00f40059 	.word	0x00f40059
 8002de0:	0166012d 	.word	0x0166012d
 8002de4:	020501bf 	.word	0x020501bf
 8002de8:	00d10015 	.word	0x00d10015
 8002dec:	001101a6 	.word	0x001101a6
 8002df0:	0011      	.short	0x0011
 8002df2:	2302      	movs	r3, #2
 8002df4:	7623      	strb	r3, [r4, #24]
 8002df6:	e8bd 83f8 	ldmia.w	sp!, {r3, r4, r5, r6, r7, r8, r9, pc}
 8002dfa:	6920      	ldr	r0, [r4, #16]
 8002dfc:	6803      	ldr	r3, [r0, #0]
 8002dfe:	69db      	ldr	r3, [r3, #28]
 8002e00:	4798      	blx	r3
 8002e02:	2800      	cmp	r0, #0
 8002e04:	d0f7      	beq.n	8002df6 <_ZN8GForceUI15stateTransitionEv+0x46>
 8002e06:	7ea3      	ldrb	r3, [r4, #26]
 8002e08:	bb1b      	cbnz	r3, 8002e52 <_ZN8GForceUI15stateTransitionEv+0xa2>
 8002e0a:	6920      	ldr	r0, [r4, #16]
 8002e0c:	6803      	ldr	r3, [r0, #0]
 8002e0e:	6a9b      	ldr	r3, [r3, #40]	; 0x28
 8002e10:	4798      	blx	r3
 8002e12:	f641 3358 	movw	r3, #7000	; 0x1b58
 8002e16:	4298      	cmp	r0, r3
 8002e18:	dd05      	ble.n	8002e26 <_ZN8GForceUI15stateTransitionEv+0x76>
 8002e1a:	2301      	movs	r3, #1
 8002e1c:	76a3      	strb	r3, [r4, #26]
 8002e1e:	230c      	movs	r3, #12
 8002e20:	7623      	strb	r3, [r4, #24]
 8002e22:	2004      	movs	r0, #4
 8002e24:	e190      	b.n	8003148 <_ZN8GForceUI15stateTransitionEv+0x398>
 8002e26:	6920      	ldr	r0, [r4, #16]
 8002e28:	6803      	ldr	r3, [r0, #0]
 8002e2a:	6a5b      	ldr	r3, [r3, #36]	; 0x24
 8002e2c:	4798      	blx	r3
 8002e2e:	f5b0 7f96 	cmp.w	r0, #300	; 0x12c
 8002e32:	dd08      	ble.n	8002e46 <_ZN8GForceUI15stateTransitionEv+0x96>
 8002e34:	6963      	ldr	r3, [r4, #20]
 8002e36:	785b      	ldrb	r3, [r3, #1]
 8002e38:	b12b      	cbz	r3, 8002e46 <_ZN8GForceUI15stateTransitionEv+0x96>
 8002e3a:	2004      	movs	r0, #4
 8002e3c:	7620      	strb	r0, [r4, #24]
 8002e3e:	f7ff ffad 	bl	8002d9c <_ZN6SleepM14requestProlongEh>
 8002e42:	2300      	movs	r3, #0
 8002e44:	e014      	b.n	8002e70 <_ZN8GForceUI15stateTransitionEv+0xc0>
 8002e46:	6920      	ldr	r0, [r4, #16]
 8002e48:	6803      	ldr	r3, [r0, #0]
 8002e4a:	6a5b      	ldr	r3, [r3, #36]	; 0x24
 8002e4c:	4798      	blx	r3
 8002e4e:	230e      	movs	r3, #14
 8002e50:	e7e6      	b.n	8002e20 <_ZN8GForceUI15stateTransitionEv+0x70>
 8002e52:	2b01      	cmp	r3, #1
 8002e54:	d112      	bne.n	8002e7c <_ZN8GForceUI15stateTransitionEv+0xcc>
 8002e56:	6920      	ldr	r0, [r4, #16]
 8002e58:	6803      	ldr	r3, [r0, #0]
 8002e5a:	6a9b      	ldr	r3, [r3, #40]	; 0x28
 8002e5c:	4798      	blx	r3
 8002e5e:	4ba9      	ldr	r3, [pc, #676]	; (8003104 <_ZN8GForceUI15stateTransitionEv+0x354>)
 8002e60:	4298      	cmp	r0, r3
 8002e62:	da07      	bge.n	8002e74 <_ZN8GForceUI15stateTransitionEv+0xc4>
 8002e64:	2306      	movs	r3, #6
 8002e66:	7623      	strb	r3, [r4, #24]
 8002e68:	203c      	movs	r0, #60	; 0x3c
 8002e6a:	f7ff ff97 	bl	8002d9c <_ZN6SleepM14requestProlongEh>
 8002e6e:	23ff      	movs	r3, #255	; 0xff
 8002e70:	76a3      	strb	r3, [r4, #26]
 8002e72:	e7c0      	b.n	8002df6 <_ZN8GForceUI15stateTransitionEv+0x46>
 8002e74:	2302      	movs	r3, #2
 8002e76:	7623      	strb	r3, [r4, #24]
 8002e78:	2004      	movs	r0, #4
 8002e7a:	e7e0      	b.n	8002e3e <_ZN8GForceUI15stateTransitionEv+0x8e>
 8002e7c:	2bff      	cmp	r3, #255	; 0xff
 8002e7e:	d1ba      	bne.n	8002df6 <_ZN8GForceUI15stateTransitionEv+0x46>
 8002e80:	e7df      	b.n	8002e42 <_ZN8GForceUI15stateTransitionEv+0x92>
 8002e82:	6920      	ldr	r0, [r4, #16]
 8002e84:	6803      	ldr	r3, [r0, #0]
 8002e86:	69db      	ldr	r3, [r3, #28]
 8002e88:	4798      	blx	r3
 8002e8a:	b120      	cbz	r0, 8002e96 <_ZN8GForceUI15stateTransitionEv+0xe6>
 8002e8c:	2305      	movs	r3, #5
 8002e8e:	7623      	strb	r3, [r4, #24]
 8002e90:	203c      	movs	r0, #60	; 0x3c
 8002e92:	f7ff ff83 	bl	8002d9c <_ZN6SleepM14requestProlongEh>
 8002e96:	7ea3      	ldrb	r3, [r4, #26]
 8002e98:	2bff      	cmp	r3, #255	; 0xff
 8002e9a:	d1ac      	bne.n	8002df6 <_ZN8GForceUI15stateTransitionEv+0x46>
 8002e9c:	6920      	ldr	r0, [r4, #16]
 8002e9e:	6803      	ldr	r3, [r0, #0]
 8002ea0:	6a5b      	ldr	r3, [r3, #36]	; 0x24
 8002ea2:	4798      	blx	r3
 8002ea4:	f5b0 6f80 	cmp.w	r0, #1024	; 0x400
 8002ea8:	dd1c      	ble.n	8002ee4 <_ZN8GForceUI15stateTransitionEv+0x134>
 8002eaa:	8ba3      	ldrh	r3, [r4, #28]
 8002eac:	3301      	adds	r3, #1
 8002eae:	83a3      	strh	r3, [r4, #28]
 8002eb0:	6963      	ldr	r3, [r4, #20]
 8002eb2:	f9b4 201c 	ldrsh.w	r2, [r4, #28]
 8002eb6:	f9b3 3004 	ldrsh.w	r3, [r3, #4]
 8002eba:	429a      	cmp	r2, r3
 8002ebc:	dd04      	ble.n	8002ec8 <_ZN8GForceUI15stateTransitionEv+0x118>
 8002ebe:	4892      	ldr	r0, [pc, #584]	; (8003108 <_ZN8GForceUI15stateTransitionEv+0x358>)
 8002ec0:	f7ff fecd 	bl	8002c5e <_ZN6ClockM11advanceHourEv>
 8002ec4:	2300      	movs	r3, #0
 8002ec6:	83a3      	strh	r3, [r4, #28]
 8002ec8:	6963      	ldr	r3, [r4, #20]
 8002eca:	f9b4 201c 	ldrsh.w	r2, [r4, #28]
 8002ece:	f9b3 3004 	ldrsh.w	r3, [r3, #4]
 8002ed2:	425b      	negs	r3, r3
 8002ed4:	429a      	cmp	r2, r3
 8002ed6:	da8e      	bge.n	8002df6 <_ZN8GForceUI15stateTransitionEv+0x46>
 8002ed8:	488b      	ldr	r0, [pc, #556]	; (8003108 <_ZN8GForceUI15stateTransitionEv+0x358>)
 8002eda:	f7ff fed9 	bl	8002c90 <_ZN6ClockM12decreaseHourEv>
 8002ede:	2300      	movs	r3, #0
 8002ee0:	83a3      	strh	r3, [r4, #28]
 8002ee2:	e788      	b.n	8002df6 <_ZN8GForceUI15stateTransitionEv+0x46>
 8002ee4:	f510 6f80 	cmn.w	r0, #1024	; 0x400
 8002ee8:	bfb6      	itet	lt
 8002eea:	8ba3      	ldrhlt	r3, [r4, #28]
 8002eec:	2300      	movge	r3, #0
 8002eee:	f103 33ff 	addlt.w	r3, r3, #4294967295	; 0xffffffff
 8002ef2:	e7dc      	b.n	8002eae <_ZN8GForceUI15stateTransitionEv+0xfe>
 8002ef4:	6920      	ldr	r0, [r4, #16]
 8002ef6:	6803      	ldr	r3, [r0, #0]
 8002ef8:	69db      	ldr	r3, [r3, #28]
 8002efa:	4798      	blx	r3
 8002efc:	b150      	cbz	r0, 8002f14 <_ZN8GForceUI15stateTransitionEv+0x164>
 8002efe:	2302      	movs	r3, #2
 8002f00:	7623      	strb	r3, [r4, #24]
 8002f02:	4881      	ldr	r0, [pc, #516]	; (8003108 <_ZN8GForceUI15stateTransitionEv+0x358>)
 8002f04:	f7ff ff34 	bl	8002d70 <_ZN6ClockM12clearSecondsEv>
 8002f08:	487f      	ldr	r0, [pc, #508]	; (8003108 <_ZN8GForceUI15stateTransitionEv+0x358>)
 8002f0a:	f7ff ff35 	bl	8002d78 <_ZN6ClockM8saveTimeEv>
 8002f0e:	2004      	movs	r0, #4
 8002f10:	f7ff ff44 	bl	8002d9c <_ZN6SleepM14requestProlongEh>
 8002f14:	7ea3      	ldrb	r3, [r4, #26]
 8002f16:	2bff      	cmp	r3, #255	; 0xff
 8002f18:	f47f af6d 	bne.w	8002df6 <_ZN8GForceUI15stateTransitionEv+0x46>
 8002f1c:	6920      	ldr	r0, [r4, #16]
 8002f1e:	6803      	ldr	r3, [r0, #0]
 8002f20:	6a5b      	ldr	r3, [r3, #36]	; 0x24
 8002f22:	4798      	blx	r3
 8002f24:	f5b0 6f80 	cmp.w	r0, #1024	; 0x400
 8002f28:	dd1b      	ble.n	8002f62 <_ZN8GForceUI15stateTransitionEv+0x1b2>
 8002f2a:	8ba3      	ldrh	r3, [r4, #28]
 8002f2c:	3301      	adds	r3, #1
 8002f2e:	83a3      	strh	r3, [r4, #28]
 8002f30:	6963      	ldr	r3, [r4, #20]
 8002f32:	f9b4 201c 	ldrsh.w	r2, [r4, #28]
 8002f36:	f9b3 3004 	ldrsh.w	r3, [r3, #4]
 8002f3a:	429a      	cmp	r2, r3
 8002f3c:	dd04      	ble.n	8002f48 <_ZN8GForceUI15stateTransitionEv+0x198>
 8002f3e:	4872      	ldr	r0, [pc, #456]	; (8003108 <_ZN8GForceUI15stateTransitionEv+0x358>)
 8002f40:	f7ff fe80 	bl	8002c44 <_ZN6ClockM13advanceMinuteEv>
 8002f44:	2300      	movs	r3, #0
 8002f46:	83a3      	strh	r3, [r4, #28]
 8002f48:	6963      	ldr	r3, [r4, #20]
 8002f4a:	f9b4 201c 	ldrsh.w	r2, [r4, #28]
 8002f4e:	f9b3 3004 	ldrsh.w	r3, [r3, #4]
 8002f52:	425b      	negs	r3, r3
 8002f54:	429a      	cmp	r2, r3
 8002f56:	f6bf af4e 	bge.w	8002df6 <_ZN8GForceUI15stateTransitionEv+0x46>
 8002f5a:	486b      	ldr	r0, [pc, #428]	; (8003108 <_ZN8GForceUI15stateTransitionEv+0x358>)
 8002f5c:	f7ff fe8c 	bl	8002c78 <_ZN6ClockM14decreaseMinuteEv>
 8002f60:	e7bd      	b.n	8002ede <_ZN8GForceUI15stateTransitionEv+0x12e>
 8002f62:	f510 6f80 	cmn.w	r0, #1024	; 0x400
 8002f66:	bfb6      	itet	lt
 8002f68:	8ba3      	ldrhlt	r3, [r4, #28]
 8002f6a:	2300      	movge	r3, #0
 8002f6c:	f103 33ff 	addlt.w	r3, r3, #4294967295	; 0xffffffff
 8002f70:	e7dd      	b.n	8002f2e <_ZN8GForceUI15stateTransitionEv+0x17e>
 8002f72:	6920      	ldr	r0, [r4, #16]
 8002f74:	6803      	ldr	r3, [r0, #0]
 8002f76:	69db      	ldr	r3, [r3, #28]
 8002f78:	4798      	blx	r3
 8002f7a:	2800      	cmp	r0, #0
 8002f7c:	f43f af3b 	beq.w	8002df6 <_ZN8GForceUI15stateTransitionEv+0x46>
 8002f80:	7ea3      	ldrb	r3, [r4, #26]
 8002f82:	b963      	cbnz	r3, 8002f9e <_ZN8GForceUI15stateTransitionEv+0x1ee>
 8002f84:	6920      	ldr	r0, [r4, #16]
 8002f86:	6803      	ldr	r3, [r0, #0]
 8002f88:	6a9b      	ldr	r3, [r3, #40]	; 0x28
 8002f8a:	4798      	blx	r3
 8002f8c:	f641 3358 	movw	r3, #7000	; 0x1b58
 8002f90:	4298      	cmp	r0, r3
 8002f92:	f340 8129 	ble.w	80031e8 <_ZN8GForceUI15stateTransitionEv+0x438>
 8002f96:	2301      	movs	r3, #1
 8002f98:	76a3      	strb	r3, [r4, #26]
 8002f9a:	230d      	movs	r3, #13
 8002f9c:	e740      	b.n	8002e20 <_ZN8GForceUI15stateTransitionEv+0x70>
 8002f9e:	2b01      	cmp	r3, #1
 8002fa0:	f47f af6c 	bne.w	8002e7c <_ZN8GForceUI15stateTransitionEv+0xcc>
 8002fa4:	6920      	ldr	r0, [r4, #16]
 8002fa6:	6803      	ldr	r3, [r0, #0]
 8002fa8:	6a9b      	ldr	r3, [r3, #40]	; 0x28
 8002faa:	4798      	blx	r3
 8002fac:	4b55      	ldr	r3, [pc, #340]	; (8003104 <_ZN8GForceUI15stateTransitionEv+0x354>)
 8002fae:	4298      	cmp	r0, r3
 8002fb0:	f6bf af43 	bge.w	8002e3a <_ZN8GForceUI15stateTransitionEv+0x8a>
 8002fb4:	2307      	movs	r3, #7
 8002fb6:	e756      	b.n	8002e66 <_ZN8GForceUI15stateTransitionEv+0xb6>
 8002fb8:	6920      	ldr	r0, [r4, #16]
 8002fba:	6803      	ldr	r3, [r0, #0]
 8002fbc:	69db      	ldr	r3, [r3, #28]
 8002fbe:	4798      	blx	r3
 8002fc0:	b120      	cbz	r0, 8002fcc <_ZN8GForceUI15stateTransitionEv+0x21c>
 8002fc2:	2308      	movs	r3, #8
 8002fc4:	7623      	strb	r3, [r4, #24]
 8002fc6:	203c      	movs	r0, #60	; 0x3c
 8002fc8:	f7ff fee8 	bl	8002d9c <_ZN6SleepM14requestProlongEh>
 8002fcc:	7ea3      	ldrb	r3, [r4, #26]
 8002fce:	2bff      	cmp	r3, #255	; 0xff
 8002fd0:	f47f af11 	bne.w	8002df6 <_ZN8GForceUI15stateTransitionEv+0x46>
 8002fd4:	6920      	ldr	r0, [r4, #16]
 8002fd6:	6803      	ldr	r3, [r0, #0]
 8002fd8:	6a5b      	ldr	r3, [r3, #36]	; 0x24
 8002fda:	4798      	blx	r3
 8002fdc:	f5b0 6f80 	cmp.w	r0, #1024	; 0x400
 8002fe0:	dd1b      	ble.n	800301a <_ZN8GForceUI15stateTransitionEv+0x26a>
 8002fe2:	8ba3      	ldrh	r3, [r4, #28]
 8002fe4:	3301      	adds	r3, #1
 8002fe6:	83a3      	strh	r3, [r4, #28]
 8002fe8:	6963      	ldr	r3, [r4, #20]
 8002fea:	f9b4 201c 	ldrsh.w	r2, [r4, #28]
 8002fee:	f9b3 3004 	ldrsh.w	r3, [r3, #4]
 8002ff2:	429a      	cmp	r2, r3
 8002ff4:	dd04      	ble.n	8003000 <_ZN8GForceUI15stateTransitionEv+0x250>
 8002ff6:	4844      	ldr	r0, [pc, #272]	; (8003108 <_ZN8GForceUI15stateTransitionEv+0x358>)
 8002ff8:	f7ff fe72 	bl	8002ce0 <_ZN6ClockM10advanceDayEv>
 8002ffc:	2300      	movs	r3, #0
 8002ffe:	83a3      	strh	r3, [r4, #28]
 8003000:	6963      	ldr	r3, [r4, #20]
 8003002:	f9b4 201c 	ldrsh.w	r2, [r4, #28]
 8003006:	f9b3 3004 	ldrsh.w	r3, [r3, #4]
 800300a:	425b      	negs	r3, r3
 800300c:	429a      	cmp	r2, r3
 800300e:	f6bf aef2 	bge.w	8002df6 <_ZN8GForceUI15stateTransitionEv+0x46>
 8003012:	483d      	ldr	r0, [pc, #244]	; (8003108 <_ZN8GForceUI15stateTransitionEv+0x358>)
 8003014:	f7ff fe7e 	bl	8002d14 <_ZN6ClockM11decreaseDayEv>
 8003018:	e761      	b.n	8002ede <_ZN8GForceUI15stateTransitionEv+0x12e>
 800301a:	f510 6f80 	cmn.w	r0, #1024	; 0x400
 800301e:	bfb6      	itet	lt
 8003020:	8ba3      	ldrhlt	r3, [r4, #28]
 8003022:	2300      	movge	r3, #0
 8003024:	f103 33ff 	addlt.w	r3, r3, #4294967295	; 0xffffffff
 8003028:	e7dd      	b.n	8002fe6 <_ZN8GForceUI15stateTransitionEv+0x236>
 800302a:	6920      	ldr	r0, [r4, #16]
 800302c:	6803      	ldr	r3, [r0, #0]
 800302e:	69db      	ldr	r3, [r3, #28]
 8003030:	4798      	blx	r3
 8003032:	b120      	cbz	r0, 800303e <_ZN8GForceUI15stateTransitionEv+0x28e>
 8003034:	2309      	movs	r3, #9
 8003036:	7623      	strb	r3, [r4, #24]
 8003038:	203c      	movs	r0, #60	; 0x3c
 800303a:	f7ff feaf 	bl	8002d9c <_ZN6SleepM14requestProlongEh>
 800303e:	7ea3      	ldrb	r3, [r4, #26]
 8003040:	2bff      	cmp	r3, #255	; 0xff
 8003042:	f47f aed8 	bne.w	8002df6 <_ZN8GForceUI15stateTransitionEv+0x46>
 8003046:	6920      	ldr	r0, [r4, #16]
 8003048:	6803      	ldr	r3, [r0, #0]
 800304a:	6a5b      	ldr	r3, [r3, #36]	; 0x24
 800304c:	4798      	blx	r3
 800304e:	f5b0 6f80 	cmp.w	r0, #1024	; 0x400
 8003052:	dd1b      	ble.n	800308c <_ZN8GForceUI15stateTransitionEv+0x2dc>
 8003054:	8ba3      	ldrh	r3, [r4, #28]
 8003056:	3301      	adds	r3, #1
 8003058:	83a3      	strh	r3, [r4, #28]
 800305a:	6963      	ldr	r3, [r4, #20]
 800305c:	f9b4 201c 	ldrsh.w	r2, [r4, #28]
 8003060:	f9b3 3004 	ldrsh.w	r3, [r3, #4]
 8003064:	429a      	cmp	r2, r3
 8003066:	dd04      	ble.n	8003072 <_ZN8GForceUI15stateTransitionEv+0x2c2>
 8003068:	4827      	ldr	r0, [pc, #156]	; (8003108 <_ZN8GForceUI15stateTransitionEv+0x358>)
 800306a:	f7ff fe1d 	bl	8002ca8 <_ZN6ClockM12advanceMonthEv>
 800306e:	2300      	movs	r3, #0
 8003070:	83a3      	strh	r3, [r4, #28]
 8003072:	6963      	ldr	r3, [r4, #20]
 8003074:	f9b4 201c 	ldrsh.w	r2, [r4, #28]
 8003078:	f9b3 3004 	ldrsh.w	r3, [r3, #4]
 800307c:	425b      	negs	r3, r3
 800307e:	429a      	cmp	r2, r3
 8003080:	f6bf aeb9 	bge.w	8002df6 <_ZN8GForceUI15stateTransitionEv+0x46>
 8003084:	4820      	ldr	r0, [pc, #128]	; (8003108 <_ZN8GForceUI15stateTransitionEv+0x358>)
 8003086:	f7ff fe1a 	bl	8002cbe <_ZN6ClockM13decreaseMonthEv>
 800308a:	e728      	b.n	8002ede <_ZN8GForceUI15stateTransitionEv+0x12e>
 800308c:	f510 6f80 	cmn.w	r0, #1024	; 0x400
 8003090:	bfb6      	itet	lt
 8003092:	8ba3      	ldrhlt	r3, [r4, #28]
 8003094:	2300      	movge	r3, #0
 8003096:	f103 33ff 	addlt.w	r3, r3, #4294967295	; 0xffffffff
 800309a:	e7dd      	b.n	8003058 <_ZN8GForceUI15stateTransitionEv+0x2a8>
 800309c:	6920      	ldr	r0, [r4, #16]
 800309e:	6803      	ldr	r3, [r0, #0]
 80030a0:	69db      	ldr	r3, [r3, #28]
 80030a2:	4798      	blx	r3
 80030a4:	b138      	cbz	r0, 80030b6 <_ZN8GForceUI15stateTransitionEv+0x306>
 80030a6:	2504      	movs	r5, #4
 80030a8:	4817      	ldr	r0, [pc, #92]	; (8003108 <_ZN8GForceUI15stateTransitionEv+0x358>)
 80030aa:	7625      	strb	r5, [r4, #24]
 80030ac:	f7ff fe64 	bl	8002d78 <_ZN6ClockM8saveTimeEv>
 80030b0:	4628      	mov	r0, r5
 80030b2:	f7ff fe73 	bl	8002d9c <_ZN6SleepM14requestProlongEh>
 80030b6:	7ea3      	ldrb	r3, [r4, #26]
 80030b8:	2bff      	cmp	r3, #255	; 0xff
 80030ba:	f47f ae9c 	bne.w	8002df6 <_ZN8GForceUI15stateTransitionEv+0x46>
 80030be:	6920      	ldr	r0, [r4, #16]
 80030c0:	6803      	ldr	r3, [r0, #0]
 80030c2:	6a5b      	ldr	r3, [r3, #36]	; 0x24
 80030c4:	4798      	blx	r3
 80030c6:	f5b0 6f80 	cmp.w	r0, #1024	; 0x400
 80030ca:	dd1f      	ble.n	800310c <_ZN8GForceUI15stateTransitionEv+0x35c>
 80030cc:	8ba3      	ldrh	r3, [r4, #28]
 80030ce:	3301      	adds	r3, #1
 80030d0:	83a3      	strh	r3, [r4, #28]
 80030d2:	6963      	ldr	r3, [r4, #20]
 80030d4:	f9b4 201c 	ldrsh.w	r2, [r4, #28]
 80030d8:	f9b3 3004 	ldrsh.w	r3, [r3, #4]
 80030dc:	429a      	cmp	r2, r3
 80030de:	dd04      	ble.n	80030ea <_ZN8GForceUI15stateTransitionEv+0x33a>
 80030e0:	4809      	ldr	r0, [pc, #36]	; (8003108 <_ZN8GForceUI15stateTransitionEv+0x358>)
 80030e2:	f7ff fe31 	bl	8002d48 <_ZN6ClockM11advanceYearEv>
 80030e6:	2300      	movs	r3, #0
 80030e8:	83a3      	strh	r3, [r4, #28]
 80030ea:	6963      	ldr	r3, [r4, #20]
 80030ec:	f9b4 201c 	ldrsh.w	r2, [r4, #28]
 80030f0:	f9b3 3004 	ldrsh.w	r3, [r3, #4]
 80030f4:	425b      	negs	r3, r3
 80030f6:	429a      	cmp	r2, r3
 80030f8:	f6bf ae7d 	bge.w	8002df6 <_ZN8GForceUI15stateTransitionEv+0x46>
 80030fc:	4802      	ldr	r0, [pc, #8]	; (8003108 <_ZN8GForceUI15stateTransitionEv+0x358>)
 80030fe:	f7ff fe2f 	bl	8002d60 <_ZN6ClockM12decreaseYearEv>
 8003102:	e6ec      	b.n	8002ede <_ZN8GForceUI15stateTransitionEv+0x12e>
 8003104:	ffffe4a8 	.word	0xffffe4a8
 8003108:	2000009c 	.word	0x2000009c
 800310c:	f510 6f80 	cmn.w	r0, #1024	; 0x400
 8003110:	bfb6      	itet	lt
 8003112:	8ba3      	ldrhlt	r3, [r4, #28]
 8003114:	2300      	movge	r3, #0
 8003116:	f103 33ff 	addlt.w	r3, r3, #4294967295	; 0xffffffff
 800311a:	e7d9      	b.n	80030d0 <_ZN8GForceUI15stateTransitionEv+0x320>
 800311c:	6920      	ldr	r0, [r4, #16]
 800311e:	6803      	ldr	r3, [r0, #0]
 8003120:	69db      	ldr	r3, [r3, #28]
 8003122:	4798      	blx	r3
 8003124:	2800      	cmp	r0, #0
 8003126:	f43f ae66 	beq.w	8002df6 <_ZN8GForceUI15stateTransitionEv+0x46>
 800312a:	6920      	ldr	r0, [r4, #16]
 800312c:	6803      	ldr	r3, [r0, #0]
 800312e:	6a9b      	ldr	r3, [r3, #40]	; 0x28
 8003130:	4798      	blx	r3
 8003132:	f641 3358 	movw	r3, #7000	; 0x1b58
 8003136:	4298      	cmp	r0, r3
 8003138:	dd56      	ble.n	80031e8 <_ZN8GForceUI15stateTransitionEv+0x438>
 800313a:	6963      	ldr	r3, [r4, #20]
 800313c:	789b      	ldrb	r3, [r3, #2]
 800313e:	2b00      	cmp	r3, #0
 8003140:	d052      	beq.n	80031e8 <_ZN8GForceUI15stateTransitionEv+0x438>
 8003142:	230a      	movs	r3, #10
 8003144:	7623      	strb	r3, [r4, #24]
 8003146:	203c      	movs	r0, #60	; 0x3c
 8003148:	f7ff fe28 	bl	8002d9c <_ZN6SleepM14requestProlongEh>
 800314c:	e653      	b.n	8002df6 <_ZN8GForceUI15stateTransitionEv+0x46>
 800314e:	6927      	ldr	r7, [r4, #16]
 8003150:	4d26      	ldr	r5, [pc, #152]	; (80031ec <_ZN8GForceUI15stateTransitionEv+0x43c>)
 8003152:	683b      	ldr	r3, [r7, #0]
 8003154:	4638      	mov	r0, r7
 8003156:	6b5b      	ldr	r3, [r3, #52]	; 0x34
 8003158:	4798      	blx	r3
 800315a:	6963      	ldr	r3, [r4, #20]
 800315c:	f9b3 8006 	ldrsh.w	r8, [r3, #6]
 8003160:	683b      	ldr	r3, [r7, #0]
 8003162:	4606      	mov	r6, r0
 8003164:	69db      	ldr	r3, [r3, #28]
 8003166:	4638      	mov	r0, r7
 8003168:	4798      	blx	r3
 800316a:	4681      	mov	r9, r0
 800316c:	b118      	cbz	r0, 8003176 <_ZN8GForceUI15stateTransitionEv+0x3c6>
 800316e:	2300      	movs	r3, #0
 8003170:	802b      	strh	r3, [r5, #0]
 8003172:	230b      	movs	r3, #11
 8003174:	e654      	b.n	8002e20 <_ZN8GForceUI15stateTransitionEv+0x70>
 8003176:	683b      	ldr	r3, [r7, #0]
 8003178:	4638      	mov	r0, r7
 800317a:	6a5b      	ldr	r3, [r3, #36]	; 0x24
 800317c:	4798      	blx	r3
 800317e:	f5b0 6f80 	cmp.w	r0, #1024	; 0x400
 8003182:	dd1e      	ble.n	80031c2 <_ZN8GForceUI15stateTransitionEv+0x412>
 8003184:	882b      	ldrh	r3, [r5, #0]
 8003186:	3301      	adds	r3, #1
 8003188:	802b      	strh	r3, [r5, #0]
 800318a:	f9b5 3000 	ldrsh.w	r3, [r5]
 800318e:	1e70      	subs	r0, r6, #1
 8003190:	4543      	cmp	r3, r8
 8003192:	b2c0      	uxtb	r0, r0
 8003194:	dd08      	ble.n	80031a8 <_ZN8GForceUI15stateTransitionEv+0x3f8>
 8003196:	7ee3      	ldrb	r3, [r4, #27]
 8003198:	4298      	cmp	r0, r3
 800319a:	f04f 0200 	mov.w	r2, #0
 800319e:	bf16      	itet	ne
 80031a0:	3301      	addne	r3, #1
 80031a2:	76e2      	strbeq	r2, [r4, #27]
 80031a4:	76e3      	strbne	r3, [r4, #27]
 80031a6:	802a      	strh	r2, [r5, #0]
 80031a8:	f9b5 3000 	ldrsh.w	r3, [r5]
 80031ac:	f1c8 0800 	rsb	r8, r8, #0
 80031b0:	4543      	cmp	r3, r8
 80031b2:	f6bf ae20 	bge.w	8002df6 <_ZN8GForceUI15stateTransitionEv+0x46>
 80031b6:	7ee3      	ldrb	r3, [r4, #27]
 80031b8:	b963      	cbnz	r3, 80031d4 <_ZN8GForceUI15stateTransitionEv+0x424>
 80031ba:	76e0      	strb	r0, [r4, #27]
 80031bc:	2300      	movs	r3, #0
 80031be:	802b      	strh	r3, [r5, #0]
 80031c0:	e619      	b.n	8002df6 <_ZN8GForceUI15stateTransitionEv+0x46>
 80031c2:	f510 6f80 	cmn.w	r0, #1024	; 0x400
 80031c6:	da02      	bge.n	80031ce <_ZN8GForceUI15stateTransitionEv+0x41e>
 80031c8:	882b      	ldrh	r3, [r5, #0]
 80031ca:	3b01      	subs	r3, #1
 80031cc:	e7dc      	b.n	8003188 <_ZN8GForceUI15stateTransitionEv+0x3d8>
 80031ce:	f8a5 9000 	strh.w	r9, [r5]
 80031d2:	e7da      	b.n	800318a <_ZN8GForceUI15stateTransitionEv+0x3da>
 80031d4:	3b01      	subs	r3, #1
 80031d6:	76e3      	strb	r3, [r4, #27]
 80031d8:	e7f0      	b.n	80031bc <_ZN8GForceUI15stateTransitionEv+0x40c>
 80031da:	6920      	ldr	r0, [r4, #16]
 80031dc:	6803      	ldr	r3, [r0, #0]
 80031de:	69db      	ldr	r3, [r3, #28]
 80031e0:	4798      	blx	r3
 80031e2:	2800      	cmp	r0, #0
 80031e4:	f43f ae07 	beq.w	8002df6 <_ZN8GForceUI15stateTransitionEv+0x46>
 80031e8:	2302      	movs	r3, #2
 80031ea:	e619      	b.n	8002e20 <_ZN8GForceUI15stateTransitionEv+0x70>
 80031ec:	200000c4 	.word	0x200000c4

080031f0 <_Z13requestScreenP14DisplayManager18DisplayRequestTypettttt>:
 80031f0:	e92d 47f0 	stmdb	sp!, {r4, r5, r6, r7, r8, r9, sl, lr}
 80031f4:	b096      	sub	sp, #88	; 0x58
 80031f6:	f10d 0637 	add.w	r6, sp, #55	; 0x37
 80031fa:	f026 060f 	bic.w	r6, r6, #15
 80031fe:	4635      	mov	r5, r6
 8003200:	4692      	mov	sl, r2
 8003202:	f8bd 9078 	ldrh.w	r9, [sp, #120]	; 0x78
 8003206:	f8bd 807c 	ldrh.w	r8, [sp, #124]	; 0x7c
 800320a:	f8bd e080 	ldrh.w	lr, [sp, #128]	; 0x80
 800320e:	f805 1b10 	strb.w	r1, [r5], #16
 8003212:	2200      	movs	r2, #0
 8003214:	4684      	mov	ip, r0
 8003216:	f8ad 2026 	strh.w	r2, [sp, #38]	; 0x26
 800321a:	2406      	movs	r4, #6
 800321c:	af07      	add	r7, sp, #28
 800321e:	f8ad a01c 	strh.w	sl, [sp, #28]
 8003222:	f8ad 301e 	strh.w	r3, [sp, #30]
 8003226:	f8ad 9020 	strh.w	r9, [sp, #32]
 800322a:	f8ad 8022 	strh.w	r8, [sp, #34]	; 0x22
 800322e:	f8ad e024 	strh.w	lr, [sp, #36]	; 0x24
 8003232:	e897 0007 	ldmia.w	r7, {r0, r1, r2}
 8003236:	3c01      	subs	r4, #1
 8003238:	f014 04ff 	ands.w	r4, r4, #255	; 0xff
 800323c:	e885 0007 	stmia.w	r5, {r0, r1, r2}
 8003240:	d1ed      	bne.n	800321e <_Z13requestScreenP14DisplayManager18DisplayRequestTypettttt+0x2e>
 8003242:	f106 0508 	add.w	r5, r6, #8
 8003246:	cd0f      	ldmia	r5!, {r0, r1, r2, r3}
 8003248:	466c      	mov	r4, sp
 800324a:	f8dc 7000 	ldr.w	r7, [ip]
 800324e:	c40f      	stmia	r4!, {r0, r1, r2, r3}
 8003250:	e895 0003 	ldmia.w	r5, {r0, r1}
 8003254:	e884 0003 	stmia.w	r4, {r0, r1}
 8003258:	4660      	mov	r0, ip
 800325a:	e896 000c 	ldmia.w	r6, {r2, r3}
 800325e:	6839      	ldr	r1, [r7, #0]
 8003260:	4788      	blx	r1
 8003262:	b016      	add	sp, #88	; 0x58
 8003264:	e8bd 87f0 	ldmia.w	sp!, {r4, r5, r6, r7, r8, r9, sl, pc}

08003268 <_ZN8GForceUI18stateDisplayReuestEv>:
 8003268:	b57f      	push	{r0, r1, r2, r3, r4, r5, r6, lr}
 800326a:	7e01      	ldrb	r1, [r0, #24]
 800326c:	1e4b      	subs	r3, r1, #1
 800326e:	4604      	mov	r4, r0
 8003270:	2b0d      	cmp	r3, #13
 8003272:	d850      	bhi.n	8003316 <_ZN8GForceUI18stateDisplayReuestEv+0xae>
 8003274:	e8df f003 	tbb	[pc, r3]
 8003278:	11070707 	.word	0x11070707
 800327c:	11110707 	.word	0x11110707
 8003280:	07423011 	.word	0x07423011
 8003284:	1911      	.short	0x1911
 8003286:	4827      	ldr	r0, [pc, #156]	; (8003324 <_ZN8GForceUI18stateDisplayReuestEv+0xbc>)
 8003288:	2500      	movs	r5, #0
 800328a:	7a43      	ldrb	r3, [r0, #9]
 800328c:	7a02      	ldrb	r2, [r0, #8]
 800328e:	e9cd 5501 	strd	r5, r5, [sp, #4]
 8003292:	7a80      	ldrb	r0, [r0, #10]
 8003294:	9000      	str	r0, [sp, #0]
 8003296:	68e0      	ldr	r0, [r4, #12]
 8003298:	e02c      	b.n	80032f4 <_ZN8GForceUI18stateDisplayReuestEv+0x8c>
 800329a:	4822      	ldr	r0, [pc, #136]	; (8003324 <_ZN8GForceUI18stateDisplayReuestEv+0xbc>)
 800329c:	2500      	movs	r5, #0
 800329e:	7f43      	ldrb	r3, [r0, #29]
 80032a0:	7f82      	ldrb	r2, [r0, #30]
 80032a2:	e9cd 5501 	strd	r5, r5, [sp, #4]
 80032a6:	7fc0      	ldrb	r0, [r0, #31]
 80032a8:	e7f4      	b.n	8003294 <_ZN8GForceUI18stateDisplayReuestEv+0x2c>
 80032aa:	6900      	ldr	r0, [r0, #16]
 80032ac:	6803      	ldr	r3, [r0, #0]
 80032ae:	6adb      	ldr	r3, [r3, #44]	; 0x2c
 80032b0:	4798      	blx	r3
 80032b2:	250a      	movs	r5, #10
 80032b4:	4602      	mov	r2, r0
 80032b6:	2100      	movs	r1, #0
 80032b8:	2a63      	cmp	r2, #99	; 0x63
 80032ba:	b2cb      	uxtb	r3, r1
 80032bc:	f101 0101 	add.w	r1, r1, #1
 80032c0:	d902      	bls.n	80032c8 <_ZN8GForceUI18stateDisplayReuestEv+0x60>
 80032c2:	fbb2 f2f5 	udiv	r2, r2, r5
 80032c6:	e7f7      	b.n	80032b8 <_ZN8GForceUI18stateDisplayReuestEv+0x50>
 80032c8:	2500      	movs	r5, #0
 80032ca:	b280      	uxth	r0, r0
 80032cc:	7e21      	ldrb	r1, [r4, #24]
 80032ce:	9000      	str	r0, [sp, #0]
 80032d0:	e9cd 5501 	strd	r5, r5, [sp, #4]
 80032d4:	b292      	uxth	r2, r2
 80032d6:	e7de      	b.n	8003296 <_ZN8GForceUI18stateDisplayReuestEv+0x2e>
 80032d8:	7ec5      	ldrb	r5, [r0, #27]
 80032da:	68c6      	ldr	r6, [r0, #12]
 80032dc:	6900      	ldr	r0, [r0, #16]
 80032de:	6803      	ldr	r3, [r0, #0]
 80032e0:	4629      	mov	r1, r5
 80032e2:	6b1b      	ldr	r3, [r3, #48]	; 0x30
 80032e4:	4798      	blx	r3
 80032e6:	2300      	movs	r3, #0
 80032e8:	e9cd 3301 	strd	r3, r3, [sp, #4]
 80032ec:	9000      	str	r0, [sp, #0]
 80032ee:	462a      	mov	r2, r5
 80032f0:	210a      	movs	r1, #10
 80032f2:	4630      	mov	r0, r6
 80032f4:	f7ff ff7c 	bl	80031f0 <_Z13requestScreenP14DisplayManager18DisplayRequestTypettttt>
 80032f8:	b004      	add	sp, #16
 80032fa:	bd70      	pop	{r4, r5, r6, pc}
 80032fc:	e9d0 5003 	ldrd	r5, r0, [r0, #12]
 8003300:	6803      	ldr	r3, [r0, #0]
 8003302:	6b9b      	ldr	r3, [r3, #56]	; 0x38
 8003304:	4798      	blx	r3
 8003306:	2300      	movs	r3, #0
 8003308:	4602      	mov	r2, r0
 800330a:	e9cd 3301 	strd	r3, r3, [sp, #4]
 800330e:	9300      	str	r3, [sp, #0]
 8003310:	210b      	movs	r1, #11
 8003312:	4628      	mov	r0, r5
 8003314:	e7ee      	b.n	80032f4 <_ZN8GForceUI18stateDisplayReuestEv+0x8c>
 8003316:	2300      	movs	r3, #0
 8003318:	e9cd 3301 	strd	r3, r3, [sp, #4]
 800331c:	9300      	str	r3, [sp, #0]
 800331e:	461a      	mov	r2, r3
 8003320:	4619      	mov	r1, r3
 8003322:	e7b8      	b.n	8003296 <_ZN8GForceUI18stateDisplayReuestEv+0x2e>
 8003324:	2000009c 	.word	0x2000009c

08003328 <_ZN8GForceUI6cyclicEv>:
 8003328:	b510      	push	{r4, lr}
 800332a:	4604      	mov	r4, r0
 800332c:	6880      	ldr	r0, [r0, #8]
 800332e:	6803      	ldr	r3, [r0, #0]
 8003330:	695b      	ldr	r3, [r3, #20]
 8003332:	4798      	blx	r3
 8003334:	b170      	cbz	r0, 8003354 <_ZN8GForceUI6cyclicEv+0x2c>
 8003336:	4620      	mov	r0, r4
 8003338:	f7ff ff96 	bl	8003268 <_ZN8GForceUI18stateDisplayReuestEv>
 800333c:	7e23      	ldrb	r3, [r4, #24]
 800333e:	3b05      	subs	r3, #5
 8003340:	2b04      	cmp	r3, #4
 8003342:	d902      	bls.n	800334a <_ZN8GForceUI6cyclicEv+0x22>
 8003344:	4804      	ldr	r0, [pc, #16]	; (8003358 <_ZN8GForceUI6cyclicEv+0x30>)
 8003346:	f7ff fd19 	bl	8002d7c <_ZN6ClockM10updateTimeEv>
 800334a:	4620      	mov	r0, r4
 800334c:	e8bd 4010 	ldmia.w	sp!, {r4, lr}
 8003350:	f7ff bd2e 	b.w	8002db0 <_ZN8GForceUI15stateTransitionEv>
 8003354:	bd10      	pop	{r4, pc}
 8003356:	bf00      	nop
 8003358:	2000009c 	.word	0x2000009c

0800335c <_ZN14DisplayManager14requestDisplayE14DisplayRequest>:
 800335c:	b082      	sub	sp, #8
 800335e:	b530      	push	{r4, r5, lr}
 8003360:	a903      	add	r1, sp, #12
 8003362:	e881 000c 	stmia.w	r1, {r2, r3}
 8003366:	7c03      	ldrb	r3, [r0, #16]
 8003368:	b993      	cbnz	r3, 8003390 <_ZN14DisplayManager14requestDisplayE14DisplayRequest+0x34>
 800336a:	ac03      	add	r4, sp, #12
 800336c:	f100 0310 	add.w	r3, r0, #16
 8003370:	ad09      	add	r5, sp, #36	; 0x24
 8003372:	4622      	mov	r2, r4
 8003374:	ca03      	ldmia	r2!, {r0, r1}
 8003376:	42aa      	cmp	r2, r5
 8003378:	6018      	str	r0, [r3, #0]
 800337a:	6059      	str	r1, [r3, #4]
 800337c:	4614      	mov	r4, r2
 800337e:	f103 0308 	add.w	r3, r3, #8
 8003382:	d1f6      	bne.n	8003372 <_ZN14DisplayManager14requestDisplayE14DisplayRequest+0x16>
 8003384:	6810      	ldr	r0, [r2, #0]
 8003386:	6018      	str	r0, [r3, #0]
 8003388:	e8bd 4030 	ldmia.w	sp!, {r4, r5, lr}
 800338c:	b002      	add	sp, #8
 800338e:	4770      	bx	lr
 8003390:	f89d 200c 	ldrb.w	r2, [sp, #12]
 8003394:	429a      	cmp	r2, r3
 8003396:	d8e8      	bhi.n	800336a <_ZN14DisplayManager14requestDisplayE14DisplayRequest+0xe>
 8003398:	e7f6      	b.n	8003388 <_ZN14DisplayManager14requestDisplayE14DisplayRequest+0x2c>

0800339a <_ZN14DisplayManager13setBrightnessEh>:
 800339a:	f880 1030 	strb.w	r1, [r0, #48]	; 0x30
 800339e:	4770      	bx	lr

080033a0 <_ZN28STM32L4_AnalogDisplayManager24executeSleepSubscriptionEv>:
 80033a0:	4770      	bx	lr
	...

080033a4 <_ZN28STM32L4_AnalogDisplayManager4initEv>:
 80033a4:	4b10      	ldr	r3, [pc, #64]	; (80033e8 <_ZN28STM32L4_AnalogDisplayManager4initEv+0x44>)
 80033a6:	6cda      	ldr	r2, [r3, #76]	; 0x4c
 80033a8:	f042 0201 	orr.w	r2, r2, #1
 80033ac:	64da      	str	r2, [r3, #76]	; 0x4c
 80033ae:	6cda      	ldr	r2, [r3, #76]	; 0x4c
 80033b0:	b082      	sub	sp, #8
 80033b2:	f002 0201 	and.w	r2, r2, #1
 80033b6:	9200      	str	r2, [sp, #0]
 80033b8:	9a00      	ldr	r2, [sp, #0]
 80033ba:	6cda      	ldr	r2, [r3, #76]	; 0x4c
 80033bc:	f042 0202 	orr.w	r2, r2, #2
 80033c0:	64da      	str	r2, [r3, #76]	; 0x4c
 80033c2:	6cdb      	ldr	r3, [r3, #76]	; 0x4c
 80033c4:	f003 0302 	and.w	r3, r3, #2
 80033c8:	9301      	str	r3, [sp, #4]
 80033ca:	9b01      	ldr	r3, [sp, #4]
 80033cc:	4b07      	ldr	r3, [pc, #28]	; (80033ec <_ZN28STM32L4_AnalogDisplayManager4initEv+0x48>)
 80033ce:	681a      	ldr	r2, [r3, #0]
 80033d0:	7b13      	ldrb	r3, [r2, #12]
 80033d2:	2b04      	cmp	r3, #4
 80033d4:	d805      	bhi.n	80033e2 <_ZN28STM32L4_AnalogDisplayManager4initEv+0x3e>
 80033d6:	1c59      	adds	r1, r3, #1
 80033d8:	3304      	adds	r3, #4
 80033da:	3034      	adds	r0, #52	; 0x34
 80033dc:	7311      	strb	r1, [r2, #12]
 80033de:	f842 0023 	str.w	r0, [r2, r3, lsl #2]
 80033e2:	b002      	add	sp, #8
 80033e4:	4770      	bx	lr
 80033e6:	bf00      	nop
 80033e8:	40021000 	.word	0x40021000
 80033ec:	20000058 	.word	0x20000058

080033f0 <_ZL12DWT_Delay_usm>:
 80033f0:	b537      	push	{r0, r1, r2, r4, r5, lr}
 80033f2:	4c09      	ldr	r4, [pc, #36]	; (8003418 <_ZL12DWT_Delay_usm+0x28>)
 80033f4:	9001      	str	r0, [sp, #4]
 80033f6:	6865      	ldr	r5, [r4, #4]
 80033f8:	f7fe fb62 	bl	8001ac0 <HAL_RCC_GetHCLKFreq>
 80033fc:	9b01      	ldr	r3, [sp, #4]
 80033fe:	4a07      	ldr	r2, [pc, #28]	; (800341c <_ZL12DWT_Delay_usm+0x2c>)
 8003400:	fbb0 f0f2 	udiv	r0, r0, r2
 8003404:	4343      	muls	r3, r0
 8003406:	9301      	str	r3, [sp, #4]
 8003408:	6863      	ldr	r3, [r4, #4]
 800340a:	9a01      	ldr	r2, [sp, #4]
 800340c:	1b5b      	subs	r3, r3, r5
 800340e:	4293      	cmp	r3, r2
 8003410:	d3fa      	bcc.n	8003408 <_ZL12DWT_Delay_usm+0x18>
 8003412:	b003      	add	sp, #12
 8003414:	bd30      	pop	{r4, r5, pc}
 8003416:	bf00      	nop
 8003418:	e0001000 	.word	0xe0001000
 800341c:	000f4240 	.word	0x000f4240

08003420 <_ZN14DisplayManager9showERROREhh>:
 8003420:	e92d 41f0 	stmdb	sp!, {r4, r5, r6, r7, r8, lr}
 8003424:	b092      	sub	sp, #72	; 0x48
 8003426:	f10d 0427 	add.w	r4, sp, #39	; 0x27
 800342a:	f024 040f 	bic.w	r4, r4, #15
 800342e:	4623      	mov	r3, r4
 8003430:	4680      	mov	r8, r0
 8003432:	200f      	movs	r0, #15
 8003434:	f803 0b14 	strb.w	r0, [r3], #20
 8003438:	2000      	movs	r0, #0
 800343a:	6160      	str	r0, [r4, #20]
 800343c:	8221      	strh	r1, [r4, #16]
 800343e:	6058      	str	r0, [r3, #4]
 8003440:	8262      	strh	r2, [r4, #18]
 8003442:	f104 0608 	add.w	r6, r4, #8
 8003446:	ce0f      	ldmia	r6!, {r0, r1, r2, r3}
 8003448:	466d      	mov	r5, sp
 800344a:	c50f      	stmia	r5!, {r0, r1, r2, r3}
 800344c:	e896 0003 	ldmia.w	r6, {r0, r1}
 8003450:	e885 0003 	stmia.w	r5, {r0, r1}
 8003454:	f8d8 7000 	ldr.w	r7, [r8]
 8003458:	e894 000c 	ldmia.w	r4, {r2, r3}
 800345c:	4640      	mov	r0, r8
 800345e:	6839      	ldr	r1, [r7, #0]
 8003460:	4788      	blx	r1
 8003462:	f8d8 3000 	ldr.w	r3, [r8]
 8003466:	685b      	ldr	r3, [r3, #4]
 8003468:	4640      	mov	r0, r8
 800346a:	b012      	add	sp, #72	; 0x48
 800346c:	e8bd 41f0 	ldmia.w	sp!, {r4, r5, r6, r7, r8, lr}
 8003470:	4718      	bx	r3

08003472 <_ZThn52_N28STM32L4_AnalogDisplayManager24executeSleepSubscriptionEv>:
 8003472:	4770      	bx	lr

08003474 <_Z15clearLED_Analogv>:
 8003474:	f04f 4190 	mov.w	r1, #1207959552	; 0x48000000
 8003478:	4b04      	ldr	r3, [pc, #16]	; (800348c <_Z15clearLED_Analogv+0x18>)
 800347a:	f04f 32ff 	mov.w	r2, #4294967295	; 0xffffffff
 800347e:	600a      	str	r2, [r1, #0]
 8003480:	601a      	str	r2, [r3, #0]
 8003482:	2200      	movs	r2, #0
 8003484:	614a      	str	r2, [r1, #20]
 8003486:	615a      	str	r2, [r3, #20]
 8003488:	4770      	bx	lr
 800348a:	bf00      	nop
 800348c:	48000400 	.word	0x48000400

08003490 <_Z19showLED_Analog_Dualhh>:
 8003490:	28ff      	cmp	r0, #255	; 0xff
 8003492:	b4f0      	push	{r4, r5, r6, r7}
 8003494:	d102      	bne.n	800349c <_Z19showLED_Analog_Dualhh+0xc>
 8003496:	bcf0      	pop	{r4, r5, r6, r7}
 8003498:	f7ff bfec 	b.w	8003474 <_Z15clearLED_Analogv>
 800349c:	2863      	cmp	r0, #99	; 0x63
 800349e:	d956      	bls.n	800354e <_Z19showLED_Analog_Dualhh+0xbe>
 80034a0:	f1a0 0464 	sub.w	r4, r0, #100	; 0x64
 80034a4:	220c      	movs	r2, #12
 80034a6:	fb94 f3f2 	sdiv	r3, r4, r2
 80034aa:	fb02 4313 	mls	r3, r2, r3, r4
 80034ae:	4a5c      	ldr	r2, [pc, #368]	; (8003620 <_Z19showLED_Analog_Dualhh+0x190>)
 80034b0:	29ff      	cmp	r1, #255	; 0xff
 80034b2:	f852 4023 	ldr.w	r4, [r2, r3, lsl #2]
 80034b6:	d010      	beq.n	80034da <_Z19showLED_Analog_Dualhh+0x4a>
 80034b8:	2963      	cmp	r1, #99	; 0x63
 80034ba:	f240 8091 	bls.w	80035e0 <_Z19showLED_Analog_Dualhh+0x150>
 80034be:	220c      	movs	r2, #12
 80034c0:	f1a1 0564 	sub.w	r5, r1, #100	; 0x64
 80034c4:	fb95 f3f2 	sdiv	r3, r5, r2
 80034c8:	fb02 5313 	mls	r3, r2, r3, r5
 80034cc:	4a54      	ldr	r2, [pc, #336]	; (8003620 <_Z19showLED_Analog_Dualhh+0x190>)
 80034ce:	f852 3023 	ldr.w	r3, [r2, r3, lsl #2]
 80034d2:	2863      	cmp	r0, #99	; 0x63
 80034d4:	ea04 0403 	and.w	r4, r4, r3
 80034d8:	d944      	bls.n	8003564 <_Z19showLED_Analog_Dualhh+0xd4>
 80034da:	220c      	movs	r2, #12
 80034dc:	f1a0 0564 	sub.w	r5, r0, #100	; 0x64
 80034e0:	fb95 f3f2 	sdiv	r3, r5, r2
 80034e4:	fb02 5313 	mls	r3, r2, r3, r5
 80034e8:	4a4e      	ldr	r2, [pc, #312]	; (8003624 <_Z19showLED_Analog_Dualhh+0x194>)
 80034ea:	29ff      	cmp	r1, #255	; 0xff
 80034ec:	f852 2023 	ldr.w	r2, [r2, r3, lsl #2]
 80034f0:	d143      	bne.n	800357a <_Z19showLED_Analog_Dualhh+0xea>
 80034f2:	250c      	movs	r5, #12
 80034f4:	f1a0 0664 	sub.w	r6, r0, #100	; 0x64
 80034f8:	fb96 f3f5 	sdiv	r3, r6, r5
 80034fc:	fb05 6313 	mls	r3, r5, r3, r6
 8003500:	4d49      	ldr	r5, [pc, #292]	; (8003628 <_Z19showLED_Analog_Dualhh+0x198>)
 8003502:	29ff      	cmp	r1, #255	; 0xff
 8003504:	f835 5013 	ldrh.w	r5, [r5, r3, lsl #1]
 8003508:	d152      	bne.n	80035b0 <_Z19showLED_Analog_Dualhh+0x120>
 800350a:	f1a0 0664 	sub.w	r6, r0, #100	; 0x64
 800350e:	200c      	movs	r0, #12
 8003510:	fb96 f3f0 	sdiv	r3, r6, r0
 8003514:	fb00 6013 	mls	r0, r0, r3, r6
 8003518:	4b44      	ldr	r3, [pc, #272]	; (800362c <_Z19showLED_Analog_Dualhh+0x19c>)
 800351a:	f833 0010 	ldrh.w	r0, [r3, r0, lsl #1]
 800351e:	29ff      	cmp	r1, #255	; 0xff
 8003520:	d00c      	beq.n	800353c <_Z19showLED_Analog_Dualhh+0xac>
 8003522:	2963      	cmp	r1, #99	; 0x63
 8003524:	d974      	bls.n	8003610 <_Z19showLED_Analog_Dualhh+0x180>
 8003526:	f1a1 0664 	sub.w	r6, r1, #100	; 0x64
 800352a:	210c      	movs	r1, #12
 800352c:	fb96 f3f1 	sdiv	r3, r6, r1
 8003530:	fb01 6113 	mls	r1, r1, r3, r6
 8003534:	4b3d      	ldr	r3, [pc, #244]	; (800362c <_Z19showLED_Analog_Dualhh+0x19c>)
 8003536:	f833 3011 	ldrh.w	r3, [r3, r1, lsl #1]
 800353a:	4318      	orrs	r0, r3
 800353c:	f04f 4190 	mov.w	r1, #1207959552	; 0x48000000
 8003540:	4b3b      	ldr	r3, [pc, #236]	; (8003630 <_Z19showLED_Analog_Dualhh+0x1a0>)
 8003542:	600c      	str	r4, [r1, #0]
 8003544:	601a      	str	r2, [r3, #0]
 8003546:	614d      	str	r5, [r1, #20]
 8003548:	6158      	str	r0, [r3, #20]
 800354a:	bcf0      	pop	{r4, r5, r6, r7}
 800354c:	4770      	bx	lr
 800354e:	221e      	movs	r2, #30
 8003550:	fbb0 f3f2 	udiv	r3, r0, r2
 8003554:	fb02 0313 	mls	r3, r2, r3, r0
 8003558:	b2db      	uxtb	r3, r3
 800355a:	4a36      	ldr	r2, [pc, #216]	; (8003634 <_Z19showLED_Analog_Dualhh+0x1a4>)
 800355c:	29ff      	cmp	r1, #255	; 0xff
 800355e:	f852 4023 	ldr.w	r4, [r2, r3, lsl #2]
 8003562:	d1a9      	bne.n	80034b8 <_Z19showLED_Analog_Dualhh+0x28>
 8003564:	221e      	movs	r2, #30
 8003566:	fbb0 f3f2 	udiv	r3, r0, r2
 800356a:	fb02 0313 	mls	r3, r2, r3, r0
 800356e:	b2db      	uxtb	r3, r3
 8003570:	4a31      	ldr	r2, [pc, #196]	; (8003638 <_Z19showLED_Analog_Dualhh+0x1a8>)
 8003572:	29ff      	cmp	r1, #255	; 0xff
 8003574:	f852 2023 	ldr.w	r2, [r2, r3, lsl #2]
 8003578:	d00f      	beq.n	800359a <_Z19showLED_Analog_Dualhh+0x10a>
 800357a:	2963      	cmp	r1, #99	; 0x63
 800357c:	d938      	bls.n	80035f0 <_Z19showLED_Analog_Dualhh+0x160>
 800357e:	250c      	movs	r5, #12
 8003580:	f1a1 0664 	sub.w	r6, r1, #100	; 0x64
 8003584:	fb96 f3f5 	sdiv	r3, r6, r5
 8003588:	fb05 6313 	mls	r3, r5, r3, r6
 800358c:	4d25      	ldr	r5, [pc, #148]	; (8003624 <_Z19showLED_Analog_Dualhh+0x194>)
 800358e:	f855 3023 	ldr.w	r3, [r5, r3, lsl #2]
 8003592:	2863      	cmp	r0, #99	; 0x63
 8003594:	ea02 0203 	and.w	r2, r2, r3
 8003598:	d8ab      	bhi.n	80034f2 <_Z19showLED_Analog_Dualhh+0x62>
 800359a:	251e      	movs	r5, #30
 800359c:	fbb0 f3f5 	udiv	r3, r0, r5
 80035a0:	fb05 0313 	mls	r3, r5, r3, r0
 80035a4:	b2db      	uxtb	r3, r3
 80035a6:	4d25      	ldr	r5, [pc, #148]	; (800363c <_Z19showLED_Analog_Dualhh+0x1ac>)
 80035a8:	29ff      	cmp	r1, #255	; 0xff
 80035aa:	f835 5013 	ldrh.w	r5, [r5, r3, lsl #1]
 80035ae:	d00f      	beq.n	80035d0 <_Z19showLED_Analog_Dualhh+0x140>
 80035b0:	2963      	cmp	r1, #99	; 0x63
 80035b2:	d925      	bls.n	8003600 <_Z19showLED_Analog_Dualhh+0x170>
 80035b4:	260c      	movs	r6, #12
 80035b6:	f1a1 0764 	sub.w	r7, r1, #100	; 0x64
 80035ba:	fb97 f3f6 	sdiv	r3, r7, r6
 80035be:	fb06 7313 	mls	r3, r6, r3, r7
 80035c2:	4e19      	ldr	r6, [pc, #100]	; (8003628 <_Z19showLED_Analog_Dualhh+0x198>)
 80035c4:	f836 3013 	ldrh.w	r3, [r6, r3, lsl #1]
 80035c8:	2863      	cmp	r0, #99	; 0x63
 80035ca:	ea45 0503 	orr.w	r5, r5, r3
 80035ce:	d89c      	bhi.n	800350a <_Z19showLED_Analog_Dualhh+0x7a>
 80035d0:	261e      	movs	r6, #30
 80035d2:	fbb0 f3f6 	udiv	r3, r0, r6
 80035d6:	fb06 0013 	mls	r0, r6, r3, r0
 80035da:	b2c0      	uxtb	r0, r0
 80035dc:	4b18      	ldr	r3, [pc, #96]	; (8003640 <_Z19showLED_Analog_Dualhh+0x1b0>)
 80035de:	e79c      	b.n	800351a <_Z19showLED_Analog_Dualhh+0x8a>
 80035e0:	221e      	movs	r2, #30
 80035e2:	fbb1 f3f2 	udiv	r3, r1, r2
 80035e6:	fb02 1313 	mls	r3, r2, r3, r1
 80035ea:	b2db      	uxtb	r3, r3
 80035ec:	4a11      	ldr	r2, [pc, #68]	; (8003634 <_Z19showLED_Analog_Dualhh+0x1a4>)
 80035ee:	e76e      	b.n	80034ce <_Z19showLED_Analog_Dualhh+0x3e>
 80035f0:	251e      	movs	r5, #30
 80035f2:	fbb1 f3f5 	udiv	r3, r1, r5
 80035f6:	fb05 1313 	mls	r3, r5, r3, r1
 80035fa:	b2db      	uxtb	r3, r3
 80035fc:	4d0e      	ldr	r5, [pc, #56]	; (8003638 <_Z19showLED_Analog_Dualhh+0x1a8>)
 80035fe:	e7c6      	b.n	800358e <_Z19showLED_Analog_Dualhh+0xfe>
 8003600:	261e      	movs	r6, #30
 8003602:	fbb1 f3f6 	udiv	r3, r1, r6
 8003606:	fb06 1313 	mls	r3, r6, r3, r1
 800360a:	b2db      	uxtb	r3, r3
 800360c:	4e0b      	ldr	r6, [pc, #44]	; (800363c <_Z19showLED_Analog_Dualhh+0x1ac>)
 800360e:	e7d9      	b.n	80035c4 <_Z19showLED_Analog_Dualhh+0x134>
 8003610:	261e      	movs	r6, #30
 8003612:	fbb1 f3f6 	udiv	r3, r1, r6
 8003616:	fb06 1113 	mls	r1, r6, r3, r1
 800361a:	b2c9      	uxtb	r1, r1
 800361c:	4b08      	ldr	r3, [pc, #32]	; (8003640 <_Z19showLED_Analog_Dualhh+0x1b0>)
 800361e:	e78a      	b.n	8003536 <_Z19showLED_Analog_Dualhh+0xa6>
 8003620:	08005148 	.word	0x08005148
 8003624:	080051b4 	.word	0x080051b4
 8003628:	08005118 	.word	0x08005118
 800362c:	08005130 	.word	0x08005130
 8003630:	48000400 	.word	0x48000400
 8003634:	08005220 	.word	0x08005220
 8003638:	08005298 	.word	0x08005298
 800363c:	08005178 	.word	0x08005178
 8003640:	080051e4 	.word	0x080051e4

08003644 <_Z14showLED_Analogh>:
 8003644:	28ff      	cmp	r0, #255	; 0xff
 8003646:	d101      	bne.n	800364c <_Z14showLED_Analogh+0x8>
 8003648:	f7ff bf14 	b.w	8003474 <_Z15clearLED_Analogv>
 800364c:	2863      	cmp	r0, #99	; 0x63
 800364e:	d919      	bls.n	8003684 <_Z14showLED_Analogh+0x40>
 8003650:	220c      	movs	r2, #12
 8003652:	3864      	subs	r0, #100	; 0x64
 8003654:	fb90 f3f2 	sdiv	r3, r0, r2
 8003658:	fb02 0013 	mls	r0, r2, r3, r0
 800365c:	4b15      	ldr	r3, [pc, #84]	; (80036b4 <_Z14showLED_Analogh+0x70>)
 800365e:	f04f 4290 	mov.w	r2, #1207959552	; 0x48000000
 8003662:	f853 3020 	ldr.w	r3, [r3, r0, lsl #2]
 8003666:	6013      	str	r3, [r2, #0]
 8003668:	4b13      	ldr	r3, [pc, #76]	; (80036b8 <_Z14showLED_Analogh+0x74>)
 800366a:	f853 1020 	ldr.w	r1, [r3, r0, lsl #2]
 800366e:	4b13      	ldr	r3, [pc, #76]	; (80036bc <_Z14showLED_Analogh+0x78>)
 8003670:	6019      	str	r1, [r3, #0]
 8003672:	4913      	ldr	r1, [pc, #76]	; (80036c0 <_Z14showLED_Analogh+0x7c>)
 8003674:	f831 1010 	ldrh.w	r1, [r1, r0, lsl #1]
 8003678:	6151      	str	r1, [r2, #20]
 800367a:	4a12      	ldr	r2, [pc, #72]	; (80036c4 <_Z14showLED_Analogh+0x80>)
 800367c:	f832 2010 	ldrh.w	r2, [r2, r0, lsl #1]
 8003680:	615a      	str	r2, [r3, #20]
 8003682:	4770      	bx	lr
 8003684:	221e      	movs	r2, #30
 8003686:	fbb0 f3f2 	udiv	r3, r0, r2
 800368a:	fb02 0013 	mls	r0, r2, r3, r0
 800368e:	b2c0      	uxtb	r0, r0
 8003690:	4b0d      	ldr	r3, [pc, #52]	; (80036c8 <_Z14showLED_Analogh+0x84>)
 8003692:	f04f 4290 	mov.w	r2, #1207959552	; 0x48000000
 8003696:	f853 3020 	ldr.w	r3, [r3, r0, lsl #2]
 800369a:	6013      	str	r3, [r2, #0]
 800369c:	4b0b      	ldr	r3, [pc, #44]	; (80036cc <_Z14showLED_Analogh+0x88>)
 800369e:	f853 1020 	ldr.w	r1, [r3, r0, lsl #2]
 80036a2:	4b06      	ldr	r3, [pc, #24]	; (80036bc <_Z14showLED_Analogh+0x78>)
 80036a4:	6019      	str	r1, [r3, #0]
 80036a6:	490a      	ldr	r1, [pc, #40]	; (80036d0 <_Z14showLED_Analogh+0x8c>)
 80036a8:	f831 1010 	ldrh.w	r1, [r1, r0, lsl #1]
 80036ac:	6151      	str	r1, [r2, #20]
 80036ae:	4a09      	ldr	r2, [pc, #36]	; (80036d4 <_Z14showLED_Analogh+0x90>)
 80036b0:	e7e4      	b.n	800367c <_Z14showLED_Analogh+0x38>
 80036b2:	bf00      	nop
 80036b4:	08005148 	.word	0x08005148
 80036b8:	080051b4 	.word	0x080051b4
 80036bc:	48000400 	.word	0x48000400
 80036c0:	08005118 	.word	0x08005118
 80036c4:	08005130 	.word	0x08005130
 80036c8:	08005220 	.word	0x08005220
 80036cc:	08005298 	.word	0x08005298
 80036d0:	08005178 	.word	0x08005178
 80036d4:	080051e4 	.word	0x080051e4

080036d8 <_ZN28STM32L4_AnalogDisplayManager9lockPortsEv>:
 80036d8:	b082      	sub	sp, #8
 80036da:	2300      	movs	r3, #0
 80036dc:	9301      	str	r3, [sp, #4]
 80036de:	f04f 4390 	mov.w	r3, #1207959552	; 0x48000000
 80036e2:	f44f 32b0 	mov.w	r2, #90112	; 0x16000
 80036e6:	f44f 41c0 	mov.w	r1, #24576	; 0x6000
 80036ea:	61da      	str	r2, [r3, #28]
 80036ec:	61d9      	str	r1, [r3, #28]
 80036ee:	61da      	str	r2, [r3, #28]
 80036f0:	69db      	ldr	r3, [r3, #28]
 80036f2:	9301      	str	r3, [sp, #4]
 80036f4:	4b05      	ldr	r3, [pc, #20]	; (800370c <_ZN28STM32L4_AnalogDisplayManager9lockPortsEv+0x34>)
 80036f6:	4a06      	ldr	r2, [pc, #24]	; (8003710 <_ZN28STM32L4_AnalogDisplayManager9lockPortsEv+0x38>)
 80036f8:	61da      	str	r2, [r3, #28]
 80036fa:	2178      	movs	r1, #120	; 0x78
 80036fc:	61d9      	str	r1, [r3, #28]
 80036fe:	61da      	str	r2, [r3, #28]
 8003700:	69db      	ldr	r3, [r3, #28]
 8003702:	9301      	str	r3, [sp, #4]
 8003704:	9b01      	ldr	r3, [sp, #4]
 8003706:	b002      	add	sp, #8
 8003708:	f7ff beb4 	b.w	8003474 <_Z15clearLED_Analogv>
 800370c:	48000400 	.word	0x48000400
 8003710:	00010078 	.word	0x00010078

08003714 <_Z15showLEDs_AnalogPhth>:
 8003714:	e92d 41f0 	stmdb	sp!, {r4, r5, r6, r7, r8, lr}
 8003718:	4604      	mov	r4, r0
 800371a:	460f      	mov	r7, r1
 800371c:	2500      	movs	r5, #0
 800371e:	f100 0802 	add.w	r8, r0, #2
 8003722:	42bd      	cmp	r5, r7
 8003724:	d011      	beq.n	800374a <_Z15showLEDs_AnalogPhth+0x36>
 8003726:	1e66      	subs	r6, r4, #1
 8003728:	f816 0f01 	ldrb.w	r0, [r6, #1]!
 800372c:	f7ff ff8a 	bl	8003644 <_Z14showLED_Analogh>
 8003730:	20ff      	movs	r0, #255	; 0xff
 8003732:	f7ff fe5d 	bl	80033f0 <_ZL12DWT_Delay_usm>
 8003736:	f7ff fe9d 	bl	8003474 <_Z15clearLED_Analogv>
 800373a:	4546      	cmp	r6, r8
 800373c:	d1f4      	bne.n	8003728 <_Z15showLEDs_AnalogPhth+0x14>
 800373e:	7921      	ldrb	r1, [r4, #4]
 8003740:	78e0      	ldrb	r0, [r4, #3]
 8003742:	f7ff fea5 	bl	8003490 <_Z19showLED_Analog_Dualhh>
 8003746:	3501      	adds	r5, #1
 8003748:	e7eb      	b.n	8003722 <_Z15showLEDs_AnalogPhth+0xe>
 800374a:	e8bd 41f0 	ldmia.w	sp!, {r4, r5, r6, r7, r8, lr}
 800374e:	f7ff be91 	b.w	8003474 <_Z15clearLED_Analogv>
	...

08003754 <_ZN28STM32L4_AnalogDisplayManager4showEv>:
 8003754:	e92d 41f0 	stmdb	sp!, {r4, r5, r6, r7, r8, lr}
 8003758:	b08e      	sub	sp, #56	; 0x38
 800375a:	f10d 0317 	add.w	r3, sp, #23
 800375e:	4604      	mov	r4, r0
 8003760:	f023 050f 	bic.w	r5, r3, #15
 8003764:	f7fc feb4 	bl	80004d0 <HAL_GetTick>
 8003768:	2396      	movs	r3, #150	; 0x96
 800376a:	fbb0 f0f3 	udiv	r0, r0, r3
 800376e:	f04f 33ff 	mov.w	r3, #4294967295	; 0xffffffff
 8003772:	9300      	str	r3, [sp, #0]
 8003774:	f88d 3004 	strb.w	r3, [sp, #4]
 8003778:	7c23      	ldrb	r3, [r4, #16]
 800377a:	f000 0001 	and.w	r0, r0, #1
 800377e:	2b10      	cmp	r3, #16
 8003780:	f200 811b 	bhi.w	80039ba <_ZN28STM32L4_AnalogDisplayManager4showEv+0x266>
 8003784:	e8df f013 	tbh	[pc, r3, lsl #1]
 8003788:	00110046 	.word	0x00110046
 800378c:	008a008a 	.word	0x008a008a
 8003790:	007700a2 	.word	0x007700a2
 8003794:	00a20049 	.word	0x00a20049
 8003798:	00bf00a2 	.word	0x00bf00a2
 800379c:	00ed00d1 	.word	0x00ed00d1
 80037a0:	00a2008a 	.word	0x00a2008a
 80037a4:	00fb00d1 	.word	0x00fb00d1
 80037a8:	010c      	.short	0x010c
 80037aa:	2500      	movs	r5, #0
 80037ac:	f04f 0805 	mov.w	r8, #5
 80037b0:	270c      	movs	r7, #12
 80037b2:	26ff      	movs	r6, #255	; 0xff
 80037b4:	8c63      	ldrh	r3, [r4, #34]	; 0x22
 80037b6:	8c20      	ldrh	r0, [r4, #32]
 80037b8:	f88d 6003 	strb.w	r6, [sp, #3]
 80037bc:	429d      	cmp	r5, r3
 80037be:	b2e9      	uxtb	r1, r5
 80037c0:	bfa8      	it	ge
 80037c2:	b2d9      	uxtbge	r1, r3
 80037c4:	fbb0 f3f7 	udiv	r3, r0, r7
 80037c8:	fb07 0313 	mls	r3, r7, r3, r0
 80037cc:	b29b      	uxth	r3, r3
 80037ce:	1cea      	adds	r2, r5, #3
 80037d0:	fb92 f2f8 	sdiv	r2, r2, r8
 80037d4:	429a      	cmp	r2, r3
 80037d6:	bfb4      	ite	lt
 80037d8:	f102 0364 	addlt.w	r3, r2, #100	; 0x64
 80037dc:	3364      	addge	r3, #100	; 0x64
 80037de:	084a      	lsrs	r2, r1, #1
 80037e0:	07c9      	lsls	r1, r1, #31
 80037e2:	f88d 2000 	strb.w	r2, [sp]
 80037e6:	bf44      	itt	mi
 80037e8:	3201      	addmi	r2, #1
 80037ea:	f88d 2001 	strbmi.w	r2, [sp, #1]
 80037ee:	b2db      	uxtb	r3, r3
 80037f0:	f04f 02ff 	mov.w	r2, #255	; 0xff
 80037f4:	f04f 010a 	mov.w	r1, #10
 80037f8:	4668      	mov	r0, sp
 80037fa:	bf58      	it	pl
 80037fc:	f88d 6001 	strbpl.w	r6, [sp, #1]
 8003800:	f88d 3002 	strb.w	r3, [sp, #2]
 8003804:	3501      	adds	r5, #1
 8003806:	f7ff ff85 	bl	8003714 <_Z15showLEDs_AnalogPhth>
 800380a:	20dc      	movs	r0, #220	; 0xdc
 800380c:	f7ff fdf0 	bl	80033f0 <_ZL12DWT_Delay_usm>
 8003810:	2d3c      	cmp	r5, #60	; 0x3c
 8003812:	d1cf      	bne.n	80037b4 <_ZN28STM32L4_AnalogDisplayManager4showEv+0x60>
 8003814:	b00e      	add	sp, #56	; 0x38
 8003816:	e8bd 81f0 	ldmia.w	sp!, {r4, r5, r6, r7, r8, pc}
 800381a:	8c23      	ldrh	r3, [r4, #32]
 800381c:	f103 0264 	add.w	r2, r3, #100	; 0x64
 8003820:	f88d 2002 	strb.w	r2, [sp, #2]
 8003824:	b950      	cbnz	r0, 800383c <_ZN28STM32L4_AnalogDisplayManager4showEv+0xe8>
 8003826:	2b0b      	cmp	r3, #11
 8003828:	bf84      	itt	hi
 800382a:	2305      	movhi	r3, #5
 800382c:	f88d 3000 	strbhi.w	r3, [sp]
 8003830:	2300      	movs	r3, #0
 8003832:	f88d 3003 	strb.w	r3, [sp, #3]
 8003836:	230f      	movs	r3, #15
 8003838:	f88d 3004 	strb.w	r3, [sp, #4]
 800383c:	f894 2030 	ldrb.w	r2, [r4, #48]	; 0x30
 8003840:	210a      	movs	r1, #10
 8003842:	4668      	mov	r0, sp
 8003844:	f7ff ff66 	bl	8003714 <_Z15showLEDs_AnalogPhth>
 8003848:	7c23      	ldrb	r3, [r4, #16]
 800384a:	2b0f      	cmp	r3, #15
 800384c:	d0f6      	beq.n	800383c <_ZN28STM32L4_AnalogDisplayManager4showEv+0xe8>
 800384e:	2300      	movs	r3, #0
 8003850:	e9c5 3304 	strd	r3, r3, [r5, #16]
 8003854:	61ab      	str	r3, [r5, #24]
 8003856:	702b      	strb	r3, [r5, #0]
 8003858:	3410      	adds	r4, #16
 800385a:	462b      	mov	r3, r5
 800385c:	3518      	adds	r5, #24
 800385e:	461a      	mov	r2, r3
 8003860:	ca03      	ldmia	r2!, {r0, r1}
 8003862:	42aa      	cmp	r2, r5
 8003864:	6020      	str	r0, [r4, #0]
 8003866:	6061      	str	r1, [r4, #4]
 8003868:	4613      	mov	r3, r2
 800386a:	f104 0408 	add.w	r4, r4, #8
 800386e:	d1f6      	bne.n	800385e <_ZN28STM32L4_AnalogDisplayManager4showEv+0x10a>
 8003870:	6810      	ldr	r0, [r2, #0]
 8003872:	6020      	str	r0, [r4, #0]
 8003874:	e7ce      	b.n	8003814 <_ZN28STM32L4_AnalogDisplayManager4showEv+0xc0>
 8003876:	8c62      	ldrh	r2, [r4, #34]	; 0x22
 8003878:	f3c2 0347 	ubfx	r3, r2, #1, #8
 800387c:	07d7      	lsls	r7, r2, #31
 800387e:	f88d 3000 	strb.w	r3, [sp]
 8003882:	bf44      	itt	mi
 8003884:	3301      	addmi	r3, #1
 8003886:	f88d 3001 	strbmi.w	r3, [sp, #1]
 800388a:	236a      	movs	r3, #106	; 0x6a
 800388c:	f88d 3002 	strb.w	r3, [sp, #2]
 8003890:	2800      	cmp	r0, #0
 8003892:	d1d3      	bne.n	800383c <_ZN28STM32L4_AnalogDisplayManager4showEv+0xe8>
 8003894:	2364      	movs	r3, #100	; 0x64
 8003896:	f88d 3003 	strb.w	r3, [sp, #3]
 800389a:	e7cf      	b.n	800383c <_ZN28STM32L4_AnalogDisplayManager4showEv+0xe8>
 800389c:	8c61      	ldrh	r1, [r4, #34]	; 0x22
 800389e:	f3c1 0247 	ubfx	r2, r1, #1, #8
 80038a2:	07ce      	lsls	r6, r1, #31
 80038a4:	f88d 2000 	strb.w	r2, [sp]
 80038a8:	bf44      	itt	mi
 80038aa:	3201      	addmi	r2, #1
 80038ac:	f88d 2001 	strbmi.w	r2, [sp, #1]
 80038b0:	f894 2020 	ldrb.w	r2, [r4, #32]
 80038b4:	3264      	adds	r2, #100	; 0x64
 80038b6:	f88d 2002 	strb.w	r2, [sp, #2]
 80038ba:	2800      	cmp	r0, #0
 80038bc:	d1be      	bne.n	800383c <_ZN28STM32L4_AnalogDisplayManager4showEv+0xe8>
 80038be:	2b0c      	cmp	r3, #12
 80038c0:	d1bc      	bne.n	800383c <_ZN28STM32L4_AnalogDisplayManager4showEv+0xe8>
 80038c2:	2364      	movs	r3, #100	; 0x64
 80038c4:	f88d 3003 	strb.w	r3, [sp, #3]
 80038c8:	236a      	movs	r3, #106	; 0x6a
 80038ca:	e7b5      	b.n	8003838 <_ZN28STM32L4_AnalogDisplayManager4showEv+0xe4>
 80038cc:	8c21      	ldrh	r1, [r4, #32]
 80038ce:	f3c1 0247 	ubfx	r2, r1, #1, #8
 80038d2:	07c9      	lsls	r1, r1, #31
 80038d4:	f88d 2000 	strb.w	r2, [sp]
 80038d8:	bf44      	itt	mi
 80038da:	3201      	addmi	r2, #1
 80038dc:	f88d 2001 	strbmi.w	r2, [sp, #1]
 80038e0:	f894 2022 	ldrb.w	r2, [r4, #34]	; 0x22
 80038e4:	3264      	adds	r2, #100	; 0x64
 80038e6:	f88d 2002 	strb.w	r2, [sp, #2]
 80038ea:	2214      	movs	r2, #20
 80038ec:	f88d 2003 	strb.w	r2, [sp, #3]
 80038f0:	2219      	movs	r2, #25
 80038f2:	f88d 2004 	strb.w	r2, [sp, #4]
 80038f6:	2800      	cmp	r0, #0
 80038f8:	d0a0      	beq.n	800383c <_ZN28STM32L4_AnalogDisplayManager4showEv+0xe8>
 80038fa:	2b07      	cmp	r3, #7
 80038fc:	d160      	bne.n	80039c0 <_ZN28STM32L4_AnalogDisplayManager4showEv+0x26c>
 80038fe:	23ff      	movs	r3, #255	; 0xff
 8003900:	e7c9      	b.n	8003896 <_ZN28STM32L4_AnalogDisplayManager4showEv+0x142>
 8003902:	23ff      	movs	r3, #255	; 0xff
 8003904:	e798      	b.n	8003838 <_ZN28STM32L4_AnalogDisplayManager4showEv+0xe4>
 8003906:	8ca1      	ldrh	r1, [r4, #36]	; 0x24
 8003908:	220a      	movs	r2, #10
 800390a:	fbb1 f3f2 	udiv	r3, r1, r2
 800390e:	fb02 1213 	mls	r2, r2, r3, r1
 8003912:	3364      	adds	r3, #100	; 0x64
 8003914:	f88d 2000 	strb.w	r2, [sp]
 8003918:	f88d 3001 	strb.w	r3, [sp, #1]
 800391c:	2800      	cmp	r0, #0
 800391e:	d18d      	bne.n	800383c <_ZN28STM32L4_AnalogDisplayManager4showEv+0xe8>
 8003920:	230f      	movs	r3, #15
 8003922:	f88d 3003 	strb.w	r3, [sp, #3]
 8003926:	2319      	movs	r3, #25
 8003928:	e786      	b.n	8003838 <_ZN28STM32L4_AnalogDisplayManager4showEv+0xe4>
 800392a:	8ca0      	ldrh	r0, [r4, #36]	; 0x24
 800392c:	f643 2298 	movw	r2, #15000	; 0x3a98
 8003930:	2b0a      	cmp	r3, #10
 8003932:	fbb0 f1f2 	udiv	r1, r0, r2
 8003936:	fb02 0211 	mls	r2, r2, r1, r0
 800393a:	f44f 70fa 	mov.w	r0, #500	; 0x1f4
 800393e:	f101 0164 	add.w	r1, r1, #100	; 0x64
 8003942:	fbb2 f2f0 	udiv	r2, r2, r0
 8003946:	f88d 2000 	strb.w	r2, [sp]
 800394a:	f04f 026f 	mov.w	r2, #111	; 0x6f
 800394e:	f88d 1001 	strb.w	r1, [sp, #1]
 8003952:	f88d 2002 	strb.w	r2, [sp, #2]
 8003956:	f47f af71 	bne.w	800383c <_ZN28STM32L4_AnalogDisplayManager4showEv+0xe8>
 800395a:	f894 3020 	ldrb.w	r3, [r4, #32]
 800395e:	3368      	adds	r3, #104	; 0x68
 8003960:	e799      	b.n	8003896 <_ZN28STM32L4_AnalogDisplayManager4showEv+0x142>
 8003962:	8c23      	ldrh	r3, [r4, #32]
 8003964:	2232      	movs	r2, #50	; 0x32
 8003966:	fbb3 f3f2 	udiv	r3, r3, r2
 800396a:	3b1e      	subs	r3, #30
 800396c:	f88d 3000 	strb.w	r3, [sp]
 8003970:	2364      	movs	r3, #100	; 0x64
 8003972:	f88d 3001 	strb.w	r3, [sp, #1]
 8003976:	236f      	movs	r3, #111	; 0x6f
 8003978:	f88d 3002 	strb.w	r3, [sp, #2]
 800397c:	e75e      	b.n	800383c <_ZN28STM32L4_AnalogDisplayManager4showEv+0xe8>
 800397e:	f894 3020 	ldrb.w	r3, [r4, #32]
 8003982:	8c62      	ldrh	r2, [r4, #34]	; 0x22
 8003984:	3364      	adds	r3, #100	; 0x64
 8003986:	f88d 3002 	strb.w	r3, [sp, #2]
 800398a:	f3c2 0347 	ubfx	r3, r2, #1, #8
 800398e:	07d2      	lsls	r2, r2, #31
 8003990:	f88d 3000 	strb.w	r3, [sp]
 8003994:	f57f af52 	bpl.w	800383c <_ZN28STM32L4_AnalogDisplayManager4showEv+0xe8>
 8003998:	3301      	adds	r3, #1
 800399a:	f88d 3001 	strb.w	r3, [sp, #1]
 800399e:	e74d      	b.n	800383c <_ZN28STM32L4_AnalogDisplayManager4showEv+0xe8>
 80039a0:	8c23      	ldrh	r3, [r4, #32]
 80039a2:	f88d 3003 	strb.w	r3, [sp, #3]
 80039a6:	8c63      	ldrh	r3, [r4, #34]	; 0x22
 80039a8:	f88d 3002 	strb.w	r3, [sp, #2]
 80039ac:	8ca3      	ldrh	r3, [r4, #36]	; 0x24
 80039ae:	f88d 3001 	strb.w	r3, [sp, #1]
 80039b2:	8ce3      	ldrh	r3, [r4, #38]	; 0x26
 80039b4:	f88d 3000 	strb.w	r3, [sp]
 80039b8:	e740      	b.n	800383c <_ZN28STM32L4_AnalogDisplayManager4showEv+0xe8>
 80039ba:	4b06      	ldr	r3, [pc, #24]	; (80039d4 <_ZN28STM32L4_AnalogDisplayManager4showEv+0x280>)
 80039bc:	9300      	str	r3, [sp, #0]
 80039be:	e73d      	b.n	800383c <_ZN28STM32L4_AnalogDisplayManager4showEv+0xe8>
 80039c0:	2b08      	cmp	r3, #8
 80039c2:	d09e      	beq.n	8003902 <_ZN28STM32L4_AnalogDisplayManager4showEv+0x1ae>
 80039c4:	2b0d      	cmp	r3, #13
 80039c6:	f47f af39 	bne.w	800383c <_ZN28STM32L4_AnalogDisplayManager4showEv+0xe8>
 80039ca:	23ff      	movs	r3, #255	; 0xff
 80039cc:	f88d 3003 	strb.w	r3, [sp, #3]
 80039d0:	e732      	b.n	8003838 <_ZN28STM32L4_AnalogDisplayManager4showEv+0xe4>
 80039d2:	bf00      	nop
 80039d4:	6d6a6764 	.word	0x6d6a6764

080039d8 <_ZN25STM32L4_BCDDisplayManager9lockPortsEv>:
 80039d8:	b082      	sub	sp, #8
 80039da:	2300      	movs	r3, #0
 80039dc:	9301      	str	r3, [sp, #4]
 80039de:	f04f 4390 	mov.w	r3, #1207959552	; 0x48000000
 80039e2:	f44f 32b0 	mov.w	r2, #90112	; 0x16000
 80039e6:	f44f 41c0 	mov.w	r1, #24576	; 0x6000
 80039ea:	61da      	str	r2, [r3, #28]
 80039ec:	61d9      	str	r1, [r3, #28]
 80039ee:	61da      	str	r2, [r3, #28]
 80039f0:	69db      	ldr	r3, [r3, #28]
 80039f2:	9301      	str	r3, [sp, #4]
 80039f4:	4b05      	ldr	r3, [pc, #20]	; (8003a0c <_ZN25STM32L4_BCDDisplayManager9lockPortsEv+0x34>)
 80039f6:	4a06      	ldr	r2, [pc, #24]	; (8003a10 <_ZN25STM32L4_BCDDisplayManager9lockPortsEv+0x38>)
 80039f8:	61da      	str	r2, [r3, #28]
 80039fa:	2178      	movs	r1, #120	; 0x78
 80039fc:	61d9      	str	r1, [r3, #28]
 80039fe:	61da      	str	r2, [r3, #28]
 8003a00:	69db      	ldr	r3, [r3, #28]
 8003a02:	9301      	str	r3, [sp, #4]
 8003a04:	9b01      	ldr	r3, [sp, #4]
 8003a06:	b002      	add	sp, #8
 8003a08:	4770      	bx	lr
 8003a0a:	bf00      	nop
 8003a0c:	48000400 	.word	0x48000400
 8003a10:	00010078 	.word	0x00010078

08003a14 <_ZN25STM32L4_BCDDisplayManager24executeSleepSubscriptionEv>:
 8003a14:	b570      	push	{r4, r5, r6, lr}
 8003a16:	2214      	movs	r2, #20
 8003a18:	b08a      	sub	sp, #40	; 0x28
 8003a1a:	eb0d 0002 	add.w	r0, sp, r2
 8003a1e:	2100      	movs	r1, #0
 8003a20:	f001 fb2c 	bl	800507c <memset>
 8003a24:	4b31      	ldr	r3, [pc, #196]	; (8003aec <_ZN25STM32L4_BCDDisplayManager24executeSleepSubscriptionEv+0xd8>)
 8003a26:	4e32      	ldr	r6, [pc, #200]	; (8003af0 <_ZN25STM32L4_BCDDisplayManager24executeSleepSubscriptionEv+0xdc>)
 8003a28:	6cda      	ldr	r2, [r3, #76]	; 0x4c
 8003a2a:	f042 0204 	orr.w	r2, r2, #4
 8003a2e:	64da      	str	r2, [r3, #76]	; 0x4c
 8003a30:	6cda      	ldr	r2, [r3, #76]	; 0x4c
 8003a32:	f002 0204 	and.w	r2, r2, #4
 8003a36:	9201      	str	r2, [sp, #4]
 8003a38:	9a01      	ldr	r2, [sp, #4]
 8003a3a:	6cda      	ldr	r2, [r3, #76]	; 0x4c
 8003a3c:	f042 0201 	orr.w	r2, r2, #1
 8003a40:	64da      	str	r2, [r3, #76]	; 0x4c
 8003a42:	6cda      	ldr	r2, [r3, #76]	; 0x4c
 8003a44:	f002 0201 	and.w	r2, r2, #1
 8003a48:	9202      	str	r2, [sp, #8]
 8003a4a:	9a02      	ldr	r2, [sp, #8]
 8003a4c:	6cda      	ldr	r2, [r3, #76]	; 0x4c
 8003a4e:	f042 0202 	orr.w	r2, r2, #2
 8003a52:	64da      	str	r2, [r3, #76]	; 0x4c
 8003a54:	6cda      	ldr	r2, [r3, #76]	; 0x4c
 8003a56:	f002 0202 	and.w	r2, r2, #2
 8003a5a:	9203      	str	r2, [sp, #12]
 8003a5c:	9a03      	ldr	r2, [sp, #12]
 8003a5e:	6cda      	ldr	r2, [r3, #76]	; 0x4c
 8003a60:	f042 0280 	orr.w	r2, r2, #128	; 0x80
 8003a64:	64da      	str	r2, [r3, #76]	; 0x4c
 8003a66:	6cdb      	ldr	r3, [r3, #76]	; 0x4c
 8003a68:	f003 0380 	and.w	r3, r3, #128	; 0x80
 8003a6c:	9304      	str	r3, [sp, #16]
 8003a6e:	2200      	movs	r2, #0
 8003a70:	f641 6178 	movw	r1, #7800	; 0x1e78
 8003a74:	f04f 4090 	mov.w	r0, #1207959552	; 0x48000000
 8003a78:	9b04      	ldr	r3, [sp, #16]
 8003a7a:	f7fd fb57 	bl	800112c <HAL_GPIO_WritePin>
 8003a7e:	2201      	movs	r2, #1
 8003a80:	4630      	mov	r0, r6
 8003a82:	2140      	movs	r1, #64	; 0x40
 8003a84:	f7fd fb52 	bl	800112c <HAL_GPIO_WritePin>
 8003a88:	2503      	movs	r5, #3
 8003a8a:	2400      	movs	r4, #0
 8003a8c:	f248 1382 	movw	r3, #33154	; 0x8182
 8003a90:	a905      	add	r1, sp, #20
 8003a92:	f04f 4090 	mov.w	r0, #1207959552	; 0x48000000
 8003a96:	e9cd 3505 	strd	r3, r5, [sp, #20]
 8003a9a:	9407      	str	r4, [sp, #28]
 8003a9c:	f7fd fa86 	bl	8000fac <HAL_GPIO_Init>
 8003aa0:	f641 6378 	movw	r3, #7800	; 0x1e78
 8003aa4:	a905      	add	r1, sp, #20
 8003aa6:	f04f 4090 	mov.w	r0, #1207959552	; 0x48000000
 8003aaa:	e9cd 3505 	strd	r3, r5, [sp, #20]
 8003aae:	e9cd 4407 	strd	r4, r4, [sp, #28]
 8003ab2:	f7fd fa7b 	bl	8000fac <HAL_GPIO_Init>
 8003ab6:	2383      	movs	r3, #131	; 0x83
 8003ab8:	a905      	add	r1, sp, #20
 8003aba:	4630      	mov	r0, r6
 8003abc:	e9cd 3505 	strd	r3, r5, [sp, #20]
 8003ac0:	9407      	str	r4, [sp, #28]
 8003ac2:	f7fd fa73 	bl	8000fac <HAL_GPIO_Init>
 8003ac6:	2340      	movs	r3, #64	; 0x40
 8003ac8:	a905      	add	r1, sp, #20
 8003aca:	4630      	mov	r0, r6
 8003acc:	e9cd 3505 	strd	r3, r5, [sp, #20]
 8003ad0:	e9cd 4407 	strd	r4, r4, [sp, #28]
 8003ad4:	f7fd fa6a 	bl	8000fac <HAL_GPIO_Init>
 8003ad8:	2308      	movs	r3, #8
 8003ada:	a905      	add	r1, sp, #20
 8003adc:	4805      	ldr	r0, [pc, #20]	; (8003af4 <_ZN25STM32L4_BCDDisplayManager24executeSleepSubscriptionEv+0xe0>)
 8003ade:	9407      	str	r4, [sp, #28]
 8003ae0:	e9cd 3505 	strd	r3, r5, [sp, #20]
 8003ae4:	f7fd fa62 	bl	8000fac <HAL_GPIO_Init>
 8003ae8:	b00a      	add	sp, #40	; 0x28
 8003aea:	bd70      	pop	{r4, r5, r6, pc}
 8003aec:	40021000 	.word	0x40021000
 8003af0:	48000400 	.word	0x48000400
 8003af4:	48001c00 	.word	0x48001c00

08003af8 <_ZThn52_N25STM32L4_BCDDisplayManager24executeSleepSubscriptionEv>:
 8003af8:	f1a0 0034 	sub.w	r0, r0, #52	; 0x34
 8003afc:	f7ff bf8a 	b.w	8003a14 <_ZN25STM32L4_BCDDisplayManager24executeSleepSubscriptionEv>

08003b00 <_ZN25STM32L4_BCDDisplayManager4initEv>:
 8003b00:	b570      	push	{r4, r5, r6, lr}
 8003b02:	2214      	movs	r2, #20
 8003b04:	b08a      	sub	sp, #40	; 0x28
 8003b06:	eb0d 0002 	add.w	r0, sp, r2
 8003b0a:	2100      	movs	r1, #0
 8003b0c:	f001 fab6 	bl	800507c <memset>
 8003b10:	4b32      	ldr	r3, [pc, #200]	; (8003bdc <_ZN25STM32L4_BCDDisplayManager4initEv+0xdc>)
 8003b12:	4e33      	ldr	r6, [pc, #204]	; (8003be0 <_ZN25STM32L4_BCDDisplayManager4initEv+0xe0>)
 8003b14:	6cda      	ldr	r2, [r3, #76]	; 0x4c
 8003b16:	f042 0204 	orr.w	r2, r2, #4
 8003b1a:	64da      	str	r2, [r3, #76]	; 0x4c
 8003b1c:	6cda      	ldr	r2, [r3, #76]	; 0x4c
 8003b1e:	f002 0204 	and.w	r2, r2, #4
 8003b22:	9201      	str	r2, [sp, #4]
 8003b24:	9a01      	ldr	r2, [sp, #4]
 8003b26:	6cda      	ldr	r2, [r3, #76]	; 0x4c
 8003b28:	f042 0201 	orr.w	r2, r2, #1
 8003b2c:	64da      	str	r2, [r3, #76]	; 0x4c
 8003b2e:	6cda      	ldr	r2, [r3, #76]	; 0x4c
 8003b30:	f002 0201 	and.w	r2, r2, #1
 8003b34:	9202      	str	r2, [sp, #8]
 8003b36:	9a02      	ldr	r2, [sp, #8]
 8003b38:	6cda      	ldr	r2, [r3, #76]	; 0x4c
 8003b3a:	f042 0202 	orr.w	r2, r2, #2
 8003b3e:	64da      	str	r2, [r3, #76]	; 0x4c
 8003b40:	6cda      	ldr	r2, [r3, #76]	; 0x4c
 8003b42:	f002 0202 	and.w	r2, r2, #2
 8003b46:	9203      	str	r2, [sp, #12]
 8003b48:	9a03      	ldr	r2, [sp, #12]
 8003b4a:	6cda      	ldr	r2, [r3, #76]	; 0x4c
 8003b4c:	f042 0280 	orr.w	r2, r2, #128	; 0x80
 8003b50:	64da      	str	r2, [r3, #76]	; 0x4c
 8003b52:	6cdb      	ldr	r3, [r3, #76]	; 0x4c
 8003b54:	f003 0380 	and.w	r3, r3, #128	; 0x80
 8003b58:	9304      	str	r3, [sp, #16]
 8003b5a:	2200      	movs	r2, #0
 8003b5c:	f641 6178 	movw	r1, #7800	; 0x1e78
 8003b60:	f04f 4090 	mov.w	r0, #1207959552	; 0x48000000
 8003b64:	9b04      	ldr	r3, [sp, #16]
 8003b66:	f7fd fae1 	bl	800112c <HAL_GPIO_WritePin>
 8003b6a:	2201      	movs	r2, #1
 8003b6c:	4630      	mov	r0, r6
 8003b6e:	2140      	movs	r1, #64	; 0x40
 8003b70:	f7fd fadc 	bl	800112c <HAL_GPIO_WritePin>
 8003b74:	2400      	movs	r4, #0
 8003b76:	2503      	movs	r5, #3
 8003b78:	f248 1382 	movw	r3, #33154	; 0x8182
 8003b7c:	a905      	add	r1, sp, #20
 8003b7e:	f04f 4090 	mov.w	r0, #1207959552	; 0x48000000
 8003b82:	e9cd 3505 	strd	r3, r5, [sp, #20]
 8003b86:	9407      	str	r4, [sp, #28]
 8003b88:	f7fd fa10 	bl	8000fac <HAL_GPIO_Init>
 8003b8c:	f641 6278 	movw	r2, #7800	; 0x1e78
 8003b90:	2301      	movs	r3, #1
 8003b92:	a905      	add	r1, sp, #20
 8003b94:	f04f 4090 	mov.w	r0, #1207959552	; 0x48000000
 8003b98:	e9cd 2305 	strd	r2, r3, [sp, #20]
 8003b9c:	e9cd 4407 	strd	r4, r4, [sp, #28]
 8003ba0:	f7fd fa04 	bl	8000fac <HAL_GPIO_Init>
 8003ba4:	2383      	movs	r3, #131	; 0x83
 8003ba6:	a905      	add	r1, sp, #20
 8003ba8:	4630      	mov	r0, r6
 8003baa:	e9cd 3505 	strd	r3, r5, [sp, #20]
 8003bae:	9407      	str	r4, [sp, #28]
 8003bb0:	f7fd f9fc 	bl	8000fac <HAL_GPIO_Init>
 8003bb4:	2311      	movs	r3, #17
 8003bb6:	2140      	movs	r1, #64	; 0x40
 8003bb8:	e9cd 1305 	strd	r1, r3, [sp, #20]
 8003bbc:	4630      	mov	r0, r6
 8003bbe:	a905      	add	r1, sp, #20
 8003bc0:	e9cd 4407 	strd	r4, r4, [sp, #28]
 8003bc4:	f7fd f9f2 	bl	8000fac <HAL_GPIO_Init>
 8003bc8:	2308      	movs	r3, #8
 8003bca:	a905      	add	r1, sp, #20
 8003bcc:	4805      	ldr	r0, [pc, #20]	; (8003be4 <_ZN25STM32L4_BCDDisplayManager4initEv+0xe4>)
 8003bce:	9407      	str	r4, [sp, #28]
 8003bd0:	e9cd 3505 	strd	r3, r5, [sp, #20]
 8003bd4:	f7fd f9ea 	bl	8000fac <HAL_GPIO_Init>
 8003bd8:	b00a      	add	sp, #40	; 0x28
 8003bda:	bd70      	pop	{r4, r5, r6, pc}
 8003bdc:	40021000 	.word	0x40021000
 8003be0:	48000400 	.word	0x48000400
 8003be4:	48001c00 	.word	0x48001c00

08003be8 <_ZL12DWT_Delay_usm>:
 8003be8:	b537      	push	{r0, r1, r2, r4, r5, lr}
 8003bea:	4c09      	ldr	r4, [pc, #36]	; (8003c10 <_ZL12DWT_Delay_usm+0x28>)
 8003bec:	9001      	str	r0, [sp, #4]
 8003bee:	6865      	ldr	r5, [r4, #4]
 8003bf0:	f7fd ff66 	bl	8001ac0 <HAL_RCC_GetHCLKFreq>
 8003bf4:	9b01      	ldr	r3, [sp, #4]
 8003bf6:	4a07      	ldr	r2, [pc, #28]	; (8003c14 <_ZL12DWT_Delay_usm+0x2c>)
 8003bf8:	fbb0 f0f2 	udiv	r0, r0, r2
 8003bfc:	4343      	muls	r3, r0
 8003bfe:	9301      	str	r3, [sp, #4]
 8003c00:	6863      	ldr	r3, [r4, #4]
 8003c02:	9a01      	ldr	r2, [sp, #4]
 8003c04:	1b5b      	subs	r3, r3, r5
 8003c06:	4293      	cmp	r3, r2
 8003c08:	d3fa      	bcc.n	8003c00 <_ZL12DWT_Delay_usm+0x18>
 8003c0a:	b003      	add	sp, #12
 8003c0c:	bd30      	pop	{r4, r5, pc}
 8003c0e:	bf00      	nop
 8003c10:	e0001000 	.word	0xe0001000
 8003c14:	000f4240 	.word	0x000f4240

08003c18 <_Z8showLEDsPtth>:
 8003c18:	e92d 4ff8 	stmdb	sp!, {r3, r4, r5, r6, r7, r8, r9, sl, fp, lr}
 8003c1c:	f8df a048 	ldr.w	sl, [pc, #72]	; 8003c68 <_Z8showLEDsPtth+0x50>
 8003c20:	4681      	mov	r9, r0
 8003c22:	468b      	mov	fp, r1
 8003c24:	4616      	mov	r6, r2
 8003c26:	2500      	movs	r5, #0
 8003c28:	f04f 4790 	mov.w	r7, #1207959552	; 0x48000000
 8003c2c:	455d      	cmp	r5, fp
 8003c2e:	d016      	beq.n	8003c5e <_Z8showLEDsPtth+0x46>
 8003c30:	f109 0808 	add.w	r8, r9, #8
 8003c34:	2400      	movs	r4, #0
 8003c36:	f838 1d02 	ldrh.w	r1, [r8, #-2]!
 8003c3a:	f85a 3024 	ldr.w	r3, [sl, r4, lsl #2]
 8003c3e:	430b      	orrs	r3, r1
 8003c40:	61bb      	str	r3, [r7, #24]
 8003c42:	4630      	mov	r0, r6
 8003c44:	f7ff ffd0 	bl	8003be8 <_ZL12DWT_Delay_usm>
 8003c48:	4b06      	ldr	r3, [pc, #24]	; (8003c64 <_Z8showLEDsPtth+0x4c>)
 8003c4a:	61bb      	str	r3, [r7, #24]
 8003c4c:	f1c6 00ff 	rsb	r0, r6, #255	; 0xff
 8003c50:	3401      	adds	r4, #1
 8003c52:	f7ff ffc9 	bl	8003be8 <_ZL12DWT_Delay_usm>
 8003c56:	2c04      	cmp	r4, #4
 8003c58:	d1ed      	bne.n	8003c36 <_Z8showLEDsPtth+0x1e>
 8003c5a:	3501      	adds	r5, #1
 8003c5c:	e7e6      	b.n	8003c2c <_Z8showLEDsPtth+0x14>
 8003c5e:	e8bd 8ff8 	ldmia.w	sp!, {r3, r4, r5, r6, r7, r8, r9, sl, fp, pc}
 8003c62:	bf00      	nop
 8003c64:	1e780000 	.word	0x1e780000
 8003c68:	08005340 	.word	0x08005340

08003c6c <_ZN25STM32L4_BCDDisplayManager4showEv>:
 8003c6c:	b5f0      	push	{r4, r5, r6, r7, lr}
 8003c6e:	b08f      	sub	sp, #60	; 0x3c
 8003c70:	4604      	mov	r4, r0
 8003c72:	f7fc fc2d 	bl	80004d0 <HAL_GetTick>
 8003c76:	2396      	movs	r3, #150	; 0x96
 8003c78:	fbb0 f0f3 	udiv	r0, r0, r3
 8003c7c:	7c23      	ldrb	r3, [r4, #16]
 8003c7e:	f10d 0517 	add.w	r5, sp, #23
 8003c82:	f025 050f 	bic.w	r5, r5, #15
 8003c86:	f000 0001 	and.w	r0, r0, #1
 8003c8a:	2b10      	cmp	r3, #16
 8003c8c:	f200 816d 	bhi.w	8003f6a <_ZN25STM32L4_BCDDisplayManager4showEv+0x2fe>
 8003c90:	e8df f013 	tbh	[pc, r3, lsl #1]
 8003c94:	0011005d 	.word	0x0011005d
 8003c98:	005f0011 	.word	0x005f0011
 8003c9c:	0011007c 	.word	0x0011007c
 8003ca0:	007c0011 	.word	0x007c0011
 8003ca4:	00a1007c 	.word	0x00a1007c
 8003ca8:	010c00e3 	.word	0x010c00e3
 8003cac:	007c0011 	.word	0x007c0011
 8003cb0:	013300ba 	.word	0x013300ba
 8003cb4:	014f      	.short	0x014f
 8003cb6:	4ebf      	ldr	r6, [pc, #764]	; (8003fb4 <_ZN25STM32L4_BCDDisplayManager4showEv+0x348>)
 8003cb8:	f8b4 c020 	ldrh.w	ip, [r4, #32]
 8003cbc:	270a      	movs	r7, #10
 8003cbe:	fbbc f1f7 	udiv	r1, ip, r7
 8003cc2:	f836 2011 	ldrh.w	r2, [r6, r1, lsl #1]
 8003cc6:	f8ad 2006 	strh.w	r2, [sp, #6]
 8003cca:	fb07 c111 	mls	r1, r7, r1, ip
 8003cce:	b289      	uxth	r1, r1
 8003cd0:	f836 2011 	ldrh.w	r2, [r6, r1, lsl #1]
 8003cd4:	8c61      	ldrh	r1, [r4, #34]	; 0x22
 8003cd6:	f8ad 2004 	strh.w	r2, [sp, #4]
 8003cda:	fbb1 f2f7 	udiv	r2, r1, r7
 8003cde:	f836 e012 	ldrh.w	lr, [r6, r2, lsl #1]
 8003ce2:	f8ad e002 	strh.w	lr, [sp, #2]
 8003ce6:	fb07 1212 	mls	r2, r7, r2, r1
 8003cea:	b292      	uxth	r2, r2
 8003cec:	f836 2012 	ldrh.w	r2, [r6, r2, lsl #1]
 8003cf0:	f8ad 2000 	strh.w	r2, [sp]
 8003cf4:	f1bc 0f00 	cmp.w	ip, #0
 8003cf8:	d103      	bne.n	8003d02 <_ZN25STM32L4_BCDDisplayManager4showEv+0x96>
 8003cfa:	b911      	cbnz	r1, 8003d02 <_ZN25STM32L4_BCDDisplayManager4showEv+0x96>
 8003cfc:	4aae      	ldr	r2, [pc, #696]	; (8003fb8 <_ZN25STM32L4_BCDDisplayManager4showEv+0x34c>)
 8003cfe:	9100      	str	r1, [sp, #0]
 8003d00:	9201      	str	r2, [sp, #4]
 8003d02:	b940      	cbnz	r0, 8003d16 <_ZN25STM32L4_BCDDisplayManager4showEv+0xaa>
 8003d04:	2b06      	cmp	r3, #6
 8003d06:	f040 8134 	bne.w	8003f72 <_ZN25STM32L4_BCDDisplayManager4showEv+0x306>
 8003d0a:	f8bd 3006 	ldrh.w	r3, [sp, #6]
 8003d0e:	f443 7300 	orr.w	r3, r3, #512	; 0x200
 8003d12:	f8ad 3006 	strh.w	r3, [sp, #6]
 8003d16:	f894 2030 	ldrb.w	r2, [r4, #48]	; 0x30
 8003d1a:	2101      	movs	r1, #1
 8003d1c:	4668      	mov	r0, sp
 8003d1e:	f7ff ff7b 	bl	8003c18 <_Z8showLEDsPtth>
 8003d22:	7c23      	ldrb	r3, [r4, #16]
 8003d24:	2b0f      	cmp	r3, #15
 8003d26:	d0f6      	beq.n	8003d16 <_ZN25STM32L4_BCDDisplayManager4showEv+0xaa>
 8003d28:	2300      	movs	r3, #0
 8003d2a:	e9c5 3304 	strd	r3, r3, [r5, #16]
 8003d2e:	61ab      	str	r3, [r5, #24]
 8003d30:	702b      	strb	r3, [r5, #0]
 8003d32:	3410      	adds	r4, #16
 8003d34:	f105 0218 	add.w	r2, r5, #24
 8003d38:	462b      	mov	r3, r5
 8003d3a:	cb03      	ldmia	r3!, {r0, r1}
 8003d3c:	4293      	cmp	r3, r2
 8003d3e:	6020      	str	r0, [r4, #0]
 8003d40:	6061      	str	r1, [r4, #4]
 8003d42:	461d      	mov	r5, r3
 8003d44:	f104 0408 	add.w	r4, r4, #8
 8003d48:	d1f6      	bne.n	8003d38 <_ZN25STM32L4_BCDDisplayManager4showEv+0xcc>
 8003d4a:	6818      	ldr	r0, [r3, #0]
 8003d4c:	6020      	str	r0, [r4, #0]
 8003d4e:	b00f      	add	sp, #60	; 0x3c
 8003d50:	bdf0      	pop	{r4, r5, r6, r7, pc}
 8003d52:	8c63      	ldrh	r3, [r4, #34]	; 0x22
 8003d54:	4997      	ldr	r1, [pc, #604]	; (8003fb4 <_ZN25STM32L4_BCDDisplayManager4showEv+0x348>)
 8003d56:	200a      	movs	r0, #10
 8003d58:	fbb3 f2f0 	udiv	r2, r3, r0
 8003d5c:	f831 6012 	ldrh.w	r6, [r1, r2, lsl #1]
 8003d60:	f8ad 6006 	strh.w	r6, [sp, #6]
 8003d64:	fb00 3212 	mls	r2, r0, r2, r3
 8003d68:	b292      	uxth	r2, r2
 8003d6a:	f831 3012 	ldrh.w	r3, [r1, r2, lsl #1]
 8003d6e:	8ca2      	ldrh	r2, [r4, #36]	; 0x24
 8003d70:	f8ad 3004 	strh.w	r3, [sp, #4]
 8003d74:	fbb2 f3f0 	udiv	r3, r2, r0
 8003d78:	f831 6013 	ldrh.w	r6, [r1, r3, lsl #1]
 8003d7c:	f8ad 6002 	strh.w	r6, [sp, #2]
 8003d80:	fb00 2313 	mls	r3, r0, r3, r2
 8003d84:	b29b      	uxth	r3, r3
 8003d86:	f831 3013 	ldrh.w	r3, [r1, r3, lsl #1]
 8003d8a:	e063      	b.n	8003e54 <_ZN25STM32L4_BCDDisplayManager4showEv+0x1e8>
 8003d8c:	4e89      	ldr	r6, [pc, #548]	; (8003fb4 <_ZN25STM32L4_BCDDisplayManager4showEv+0x348>)
 8003d8e:	f8b4 c020 	ldrh.w	ip, [r4, #32]
 8003d92:	270a      	movs	r7, #10
 8003d94:	2260      	movs	r2, #96	; 0x60
 8003d96:	fbbc f1f7 	udiv	r1, ip, r7
 8003d9a:	f8ad 2006 	strh.w	r2, [sp, #6]
 8003d9e:	f836 2011 	ldrh.w	r2, [r6, r1, lsl #1]
 8003da2:	f8ad 2004 	strh.w	r2, [sp, #4]
 8003da6:	fb07 c111 	mls	r1, r7, r1, ip
 8003daa:	8c67      	ldrh	r7, [r4, #34]	; 0x22
 8003dac:	b289      	uxth	r1, r1
 8003dae:	f007 070f 	and.w	r7, r7, #15
 8003db2:	f836 1011 	ldrh.w	r1, [r6, r1, lsl #1]
 8003db6:	f836 6017 	ldrh.w	r6, [r6, r7, lsl #1]
 8003dba:	f8ad 1002 	strh.w	r1, [sp, #2]
 8003dbe:	f8ad 6000 	strh.w	r6, [sp]
 8003dc2:	2800      	cmp	r0, #0
 8003dc4:	d1a7      	bne.n	8003d16 <_ZN25STM32L4_BCDDisplayManager4showEv+0xaa>
 8003dc6:	2b07      	cmp	r3, #7
 8003dc8:	f040 80e5 	bne.w	8003f96 <_ZN25STM32L4_BCDDisplayManager4showEv+0x32a>
 8003dcc:	f442 7200 	orr.w	r2, r2, #512	; 0x200
 8003dd0:	f8ad 2004 	strh.w	r2, [sp, #4]
 8003dd4:	e79f      	b.n	8003d16 <_ZN25STM32L4_BCDDisplayManager4showEv+0xaa>
 8003dd6:	8ca6      	ldrh	r6, [r4, #36]	; 0x24
 8003dd8:	4a76      	ldr	r2, [pc, #472]	; (8003fb4 <_ZN25STM32L4_BCDDisplayManager4showEv+0x348>)
 8003dda:	4b78      	ldr	r3, [pc, #480]	; (8003fbc <_ZN25STM32L4_BCDDisplayManager4showEv+0x350>)
 8003ddc:	9301      	str	r3, [sp, #4]
 8003dde:	210a      	movs	r1, #10
 8003de0:	fbb6 f3f1 	udiv	r3, r6, r1
 8003de4:	f832 7013 	ldrh.w	r7, [r2, r3, lsl #1]
 8003de8:	f8ad 7002 	strh.w	r7, [sp, #2]
 8003dec:	fb01 6313 	mls	r3, r1, r3, r6
 8003df0:	b29b      	uxth	r3, r3
 8003df2:	f832 3013 	ldrh.w	r3, [r2, r3, lsl #1]
 8003df6:	f8ad 3000 	strh.w	r3, [sp]
 8003dfa:	2800      	cmp	r0, #0
 8003dfc:	d18b      	bne.n	8003d16 <_ZN25STM32L4_BCDDisplayManager4showEv+0xaa>
 8003dfe:	f44f 7308 	mov.w	r3, #544	; 0x220
 8003e02:	f8ad 3004 	strh.w	r3, [sp, #4]
 8003e06:	e786      	b.n	8003d16 <_ZN25STM32L4_BCDDisplayManager4showEv+0xaa>
 8003e08:	4e6a      	ldr	r6, [pc, #424]	; (8003fb4 <_ZN25STM32L4_BCDDisplayManager4showEv+0x348>)
 8003e0a:	8ca3      	ldrh	r3, [r4, #36]	; 0x24
 8003e0c:	f44f 628c 	mov.w	r2, #1120	; 0x460
 8003e10:	210a      	movs	r1, #10
 8003e12:	f8ad 2006 	strh.w	r2, [sp, #6]
 8003e16:	f242 7210 	movw	r2, #10000	; 0x2710
 8003e1a:	fbb3 f2f2 	udiv	r2, r3, r2
 8003e1e:	f836 2012 	ldrh.w	r2, [r6, r2, lsl #1]
 8003e22:	f8ad 2004 	strh.w	r2, [sp, #4]
 8003e26:	f44f 727a 	mov.w	r2, #1000	; 0x3e8
 8003e2a:	fbb3 f0f2 	udiv	r0, r3, r2
 8003e2e:	fbb0 f2f1 	udiv	r2, r0, r1
 8003e32:	fb01 0212 	mls	r2, r1, r2, r0
 8003e36:	b292      	uxth	r2, r2
 8003e38:	f836 2012 	ldrh.w	r2, [r6, r2, lsl #1]
 8003e3c:	f8ad 2002 	strh.w	r2, [sp, #2]
 8003e40:	2264      	movs	r2, #100	; 0x64
 8003e42:	fbb3 f3f2 	udiv	r3, r3, r2
 8003e46:	fbb3 f2f1 	udiv	r2, r3, r1
 8003e4a:	fb01 3312 	mls	r3, r1, r2, r3
 8003e4e:	b29b      	uxth	r3, r3
 8003e50:	f836 3013 	ldrh.w	r3, [r6, r3, lsl #1]
 8003e54:	f8ad 3000 	strh.w	r3, [sp]
 8003e58:	e75d      	b.n	8003d16 <_ZN25STM32L4_BCDDisplayManager4showEv+0xaa>
 8003e5a:	8c22      	ldrh	r2, [r4, #32]
 8003e5c:	4955      	ldr	r1, [pc, #340]	; (8003fb4 <_ZN25STM32L4_BCDDisplayManager4showEv+0x348>)
 8003e5e:	8ca3      	ldrh	r3, [r4, #36]	; 0x24
 8003e60:	f002 0207 	and.w	r2, r2, #7
 8003e64:	200a      	movs	r0, #10
 8003e66:	f831 2012 	ldrh.w	r2, [r1, r2, lsl #1]
 8003e6a:	f442 7200 	orr.w	r2, r2, #512	; 0x200
 8003e6e:	f8ad 2006 	strh.w	r2, [sp, #6]
 8003e72:	f242 7210 	movw	r2, #10000	; 0x2710
 8003e76:	fbb3 f2f2 	udiv	r2, r3, r2
 8003e7a:	f831 2012 	ldrh.w	r2, [r1, r2, lsl #1]
 8003e7e:	f8ad 2004 	strh.w	r2, [sp, #4]
 8003e82:	f44f 727a 	mov.w	r2, #1000	; 0x3e8
 8003e86:	fbb3 f6f2 	udiv	r6, r3, r2
 8003e8a:	fbb6 f2f0 	udiv	r2, r6, r0
 8003e8e:	fb00 6212 	mls	r2, r0, r2, r6
 8003e92:	b292      	uxth	r2, r2
 8003e94:	f831 2012 	ldrh.w	r2, [r1, r2, lsl #1]
 8003e98:	f8ad 2002 	strh.w	r2, [sp, #2]
 8003e9c:	2264      	movs	r2, #100	; 0x64
 8003e9e:	fbb3 f3f2 	udiv	r3, r3, r2
 8003ea2:	fbb3 f2f0 	udiv	r2, r3, r0
 8003ea6:	fb00 3312 	mls	r3, r0, r2, r3
 8003eaa:	e76b      	b.n	8003d84 <_ZN25STM32L4_BCDDisplayManager4showEv+0x118>
 8003eac:	f44f 6280 	mov.w	r2, #1024	; 0x400
 8003eb0:	8c23      	ldrh	r3, [r4, #32]
 8003eb2:	4840      	ldr	r0, [pc, #256]	; (8003fb4 <_ZN25STM32L4_BCDDisplayManager4showEv+0x348>)
 8003eb4:	f8ad 2006 	strh.w	r2, [sp, #6]
 8003eb8:	f44f 727a 	mov.w	r2, #1000	; 0x3e8
 8003ebc:	fbb3 f2f2 	udiv	r2, r3, r2
 8003ec0:	f002 020f 	and.w	r2, r2, #15
 8003ec4:	210a      	movs	r1, #10
 8003ec6:	f830 2012 	ldrh.w	r2, [r0, r2, lsl #1]
 8003eca:	f8ad 2004 	strh.w	r2, [sp, #4]
 8003ece:	2264      	movs	r2, #100	; 0x64
 8003ed0:	fbb3 f6f2 	udiv	r6, r3, r2
 8003ed4:	fbb6 f2f1 	udiv	r2, r6, r1
 8003ed8:	fb01 6212 	mls	r2, r1, r2, r6
 8003edc:	b292      	uxth	r2, r2
 8003ede:	fbb3 f3f1 	udiv	r3, r3, r1
 8003ee2:	f830 2012 	ldrh.w	r2, [r0, r2, lsl #1]
 8003ee6:	f8ad 2002 	strh.w	r2, [sp, #2]
 8003eea:	fbb3 f2f1 	udiv	r2, r3, r1
 8003eee:	fb01 3312 	mls	r3, r1, r2, r3
 8003ef2:	b29b      	uxth	r3, r3
 8003ef4:	f830 3013 	ldrh.w	r3, [r0, r3, lsl #1]
 8003ef8:	e7ac      	b.n	8003e54 <_ZN25STM32L4_BCDDisplayManager4showEv+0x1e8>
 8003efa:	8c22      	ldrh	r2, [r4, #32]
 8003efc:	482d      	ldr	r0, [pc, #180]	; (8003fb4 <_ZN25STM32L4_BCDDisplayManager4showEv+0x348>)
 8003efe:	8c66      	ldrh	r6, [r4, #34]	; 0x22
 8003f00:	f002 020f 	and.w	r2, r2, #15
 8003f04:	f44f 63c8 	mov.w	r3, #1600	; 0x640
 8003f08:	210a      	movs	r1, #10
 8003f0a:	f8ad 3006 	strh.w	r3, [sp, #6]
 8003f0e:	f830 3012 	ldrh.w	r3, [r0, r2, lsl #1]
 8003f12:	f8ad 3004 	strh.w	r3, [sp, #4]
 8003f16:	fbb6 f3f1 	udiv	r3, r6, r1
 8003f1a:	fbb3 f2f1 	udiv	r2, r3, r1
 8003f1e:	fb02 3211 	mls	r2, r2, r1, r3
 8003f22:	b292      	uxth	r2, r2
 8003f24:	fb01 6313 	mls	r3, r1, r3, r6
 8003f28:	f830 2012 	ldrh.w	r2, [r0, r2, lsl #1]
 8003f2c:	f8ad 2002 	strh.w	r2, [sp, #2]
 8003f30:	e7df      	b.n	8003ef2 <_ZN25STM32L4_BCDDisplayManager4showEv+0x286>
 8003f32:	8c22      	ldrh	r2, [r4, #32]
 8003f34:	4b1f      	ldr	r3, [pc, #124]	; (8003fb4 <_ZN25STM32L4_BCDDisplayManager4showEv+0x348>)
 8003f36:	f002 020f 	and.w	r2, r2, #15
 8003f3a:	f833 2012 	ldrh.w	r2, [r3, r2, lsl #1]
 8003f3e:	f8ad 2006 	strh.w	r2, [sp, #6]
 8003f42:	8c62      	ldrh	r2, [r4, #34]	; 0x22
 8003f44:	f002 020f 	and.w	r2, r2, #15
 8003f48:	f833 2012 	ldrh.w	r2, [r3, r2, lsl #1]
 8003f4c:	f8ad 2004 	strh.w	r2, [sp, #4]
 8003f50:	8ca2      	ldrh	r2, [r4, #36]	; 0x24
 8003f52:	f002 020f 	and.w	r2, r2, #15
 8003f56:	f833 2012 	ldrh.w	r2, [r3, r2, lsl #1]
 8003f5a:	f8ad 2002 	strh.w	r2, [sp, #2]
 8003f5e:	8ce2      	ldrh	r2, [r4, #38]	; 0x26
 8003f60:	f002 020f 	and.w	r2, r2, #15
 8003f64:	f833 3012 	ldrh.w	r3, [r3, r2, lsl #1]
 8003f68:	e774      	b.n	8003e54 <_ZN25STM32L4_BCDDisplayManager4showEv+0x1e8>
 8003f6a:	4b15      	ldr	r3, [pc, #84]	; (8003fc0 <_ZN25STM32L4_BCDDisplayManager4showEv+0x354>)
 8003f6c:	e9cd 3300 	strd	r3, r3, [sp]
 8003f70:	e6d1      	b.n	8003d16 <_ZN25STM32L4_BCDDisplayManager4showEv+0xaa>
 8003f72:	2b05      	cmp	r3, #5
 8003f74:	d008      	beq.n	8003f88 <_ZN25STM32L4_BCDDisplayManager4showEv+0x31c>
 8003f76:	2b0c      	cmp	r3, #12
 8003f78:	f47f aecd 	bne.w	8003d16 <_ZN25STM32L4_BCDDisplayManager4showEv+0xaa>
 8003f7c:	f8bd 3006 	ldrh.w	r3, [sp, #6]
 8003f80:	f443 7300 	orr.w	r3, r3, #512	; 0x200
 8003f84:	f8ad 3006 	strh.w	r3, [sp, #6]
 8003f88:	f8bd 3002 	ldrh.w	r3, [sp, #2]
 8003f8c:	f443 7300 	orr.w	r3, r3, #512	; 0x200
 8003f90:	f8ad 3002 	strh.w	r3, [sp, #2]
 8003f94:	e6bf      	b.n	8003d16 <_ZN25STM32L4_BCDDisplayManager4showEv+0xaa>
 8003f96:	2b08      	cmp	r3, #8
 8003f98:	d006      	beq.n	8003fa8 <_ZN25STM32L4_BCDDisplayManager4showEv+0x33c>
 8003f9a:	2b0d      	cmp	r3, #13
 8003f9c:	f47f aebb 	bne.w	8003d16 <_ZN25STM32L4_BCDDisplayManager4showEv+0xaa>
 8003fa0:	f442 7200 	orr.w	r2, r2, #512	; 0x200
 8003fa4:	f8ad 2004 	strh.w	r2, [sp, #4]
 8003fa8:	f441 7100 	orr.w	r1, r1, #512	; 0x200
 8003fac:	f8ad 1002 	strh.w	r1, [sp, #2]
 8003fb0:	e6b1      	b.n	8003d16 <_ZN25STM32L4_BCDDisplayManager4showEv+0xaa>
 8003fb2:	bf00      	nop
 8003fb4:	08005350 	.word	0x08005350
 8003fb8:	00400400 	.word	0x00400400
 8003fbc:	00600440 	.word	0x00600440
 8003fc0:	06600660 	.word	0x06600660

08003fc4 <_ZN11STM32L4_HAL19HAL_getWakeupReasonEv>:
 8003fc4:	7a40      	ldrb	r0, [r0, #9]
 8003fc6:	4770      	bx	lr

08003fc8 <_ZN11STM32L4_HAL8getStepsEv>:
 8003fc8:	6900      	ldr	r0, [r0, #16]
 8003fca:	4770      	bx	lr

08003fcc <_ZN11STM32L4_HAL12getHistStepsEh>:
 8003fcc:	eb00 0141 	add.w	r1, r0, r1, lsl #1
 8003fd0:	8a88      	ldrh	r0, [r1, #20]
 8003fd2:	4770      	bx	lr

08003fd4 <_ZN11STM32L4_HAL12HAL_lockIntsEv>:
 8003fd4:	4770      	bx	lr

08003fd6 <_ZN11STM32L4_HAL8getUBattEv>:
 8003fd6:	8c80      	ldrh	r0, [r0, #36]	; 0x24
 8003fd8:	4770      	bx	lr

08003fda <_ZN11STM32L4_HAL16getHistStepsSizeEv>:
 8003fda:	2008      	movs	r0, #8
 8003fdc:	4770      	bx	lr
	...

08003fe0 <_ZN11STM32L4_HAL6getTapEv>:
 8003fe0:	b508      	push	{r3, lr}
 8003fe2:	211c      	movs	r1, #28
 8003fe4:	4802      	ldr	r0, [pc, #8]	; (8003ff0 <_ZN11STM32L4_HAL6getTapEv+0x10>)
 8003fe6:	f000 fe4c 	bl	8004c82 <_ZN9Bosch_BMA11readAddressEh>
 8003fea:	f3c0 1040 	ubfx	r0, r0, #5, #1
 8003fee:	bd08      	pop	{r3, pc}
 8003ff0:	2000000c 	.word	0x2000000c

08003ff4 <_ZN11STM32L4_HAL4getXEv>:
 8003ff4:	4801      	ldr	r0, [pc, #4]	; (8003ffc <_ZN11STM32L4_HAL4getXEv+0x8>)
 8003ff6:	f000 bea4 	b.w	8004d42 <_ZN9Bosch_BMA16get_X_Accel_corrEv>
 8003ffa:	bf00      	nop
 8003ffc:	2000000c 	.word	0x2000000c

08004000 <_ZN11STM32L4_HAL4getYEv>:
 8004000:	b508      	push	{r3, lr}
 8004002:	4803      	ldr	r0, [pc, #12]	; (8004010 <_ZN11STM32L4_HAL4getYEv+0x10>)
 8004004:	f000 fea0 	bl	8004d48 <_ZN9Bosch_BMA16get_Y_Accel_corrEv>
 8004008:	4240      	negs	r0, r0
 800400a:	b200      	sxth	r0, r0
 800400c:	bd08      	pop	{r3, pc}
 800400e:	bf00      	nop
 8004010:	2000000c 	.word	0x2000000c

08004014 <_ZN11STM32L4_HAL4getZEv>:
 8004014:	b508      	push	{r3, lr}
 8004016:	4803      	ldr	r0, [pc, #12]	; (8004024 <_ZN11STM32L4_HAL4getZEv+0x10>)
 8004018:	f000 fe99 	bl	8004d4e <_ZN9Bosch_BMA16get_Z_Accel_corrEv>
 800401c:	4240      	negs	r0, r0
 800401e:	b200      	sxth	r0, r0
 8004020:	bd08      	pop	{r3, pc}
 8004022:	bf00      	nop
 8004024:	2000000c 	.word	0x2000000c

08004028 <_Z5setCSh>:
 8004028:	b920      	cbnz	r0, 8004034 <_Z5setCSh+0xc>
 800402a:	2201      	movs	r2, #1
 800402c:	2140      	movs	r1, #64	; 0x40
 800402e:	4802      	ldr	r0, [pc, #8]	; (8004038 <_Z5setCSh+0x10>)
 8004030:	f7fd b87c 	b.w	800112c <HAL_GPIO_WritePin>
 8004034:	2200      	movs	r2, #0
 8004036:	e7f9      	b.n	800402c <_Z5setCSh+0x4>
 8004038:	48000400 	.word	0x48000400

0800403c <_ZN11STM32L4_HAL9showERROREhh>:
 800403c:	6840      	ldr	r0, [r0, #4]
 800403e:	b110      	cbz	r0, 8004046 <_ZN11STM32L4_HAL9showERROREhh+0xa>
 8004040:	6803      	ldr	r3, [r0, #0]
 8004042:	689b      	ldr	r3, [r3, #8]
 8004044:	4718      	bx	r3
 8004046:	4770      	bx	lr

08004048 <_Z15HAL_MX_RTC_Initv>:
 8004048:	b510      	push	{r4, lr}
 800404a:	b092      	sub	sp, #72	; 0x48
 800404c:	2400      	movs	r4, #0
 800404e:	2214      	movs	r2, #20
 8004050:	2100      	movs	r1, #0
 8004052:	a802      	add	r0, sp, #8
 8004054:	f001 f812 	bl	800507c <memset>
 8004058:	222c      	movs	r2, #44	; 0x2c
 800405a:	4621      	mov	r1, r4
 800405c:	a807      	add	r0, sp, #28
 800405e:	9401      	str	r4, [sp, #4]
 8004060:	f001 f80c 	bl	800507c <memset>
 8004064:	4824      	ldr	r0, [pc, #144]	; (80040f8 <_Z15HAL_MX_RTC_Initv+0xb0>)
 8004066:	4b25      	ldr	r3, [pc, #148]	; (80040fc <_Z15HAL_MX_RTC_Initv+0xb4>)
 8004068:	227f      	movs	r2, #127	; 0x7f
 800406a:	e9c0 3400 	strd	r3, r4, [r0]
 800406e:	23ff      	movs	r3, #255	; 0xff
 8004070:	e9c0 2302 	strd	r2, r3, [r0, #8]
 8004074:	e9c0 4404 	strd	r4, r4, [r0, #16]
 8004078:	e9c0 4406 	strd	r4, r4, [r0, #24]
 800407c:	f7fd ff78 	bl	8001f70 <HAL_RTC_Init>
 8004080:	b108      	cbz	r0, 8004086 <_Z15HAL_MX_RTC_Initv+0x3e>
 8004082:	f7fc f907 	bl	8000294 <Error_Handler>
 8004086:	f645 1323 	movw	r3, #22819	; 0x5923
 800408a:	f8ad 3008 	strh.w	r3, [sp, #8]
 800408e:	2345      	movs	r3, #69	; 0x45
 8004090:	f88d 300a 	strb.w	r3, [sp, #10]
 8004094:	2201      	movs	r2, #1
 8004096:	2300      	movs	r3, #0
 8004098:	a902      	add	r1, sp, #8
 800409a:	4817      	ldr	r0, [pc, #92]	; (80040f8 <_Z15HAL_MX_RTC_Initv+0xb0>)
 800409c:	e9cd 3305 	strd	r3, r3, [sp, #20]
 80040a0:	f7fd ffb7 	bl	8002012 <HAL_RTC_SetTime>
 80040a4:	b108      	cbz	r0, 80040aa <_Z15HAL_MX_RTC_Initv+0x62>
 80040a6:	f7fc f8f5 	bl	8000294 <Error_Handler>
 80040aa:	a912      	add	r1, sp, #72	; 0x48
 80040ac:	4b14      	ldr	r3, [pc, #80]	; (8004100 <_Z15HAL_MX_RTC_Initv+0xb8>)
 80040ae:	f841 3d44 	str.w	r3, [r1, #-68]!
 80040b2:	2201      	movs	r2, #1
 80040b4:	4810      	ldr	r0, [pc, #64]	; (80040f8 <_Z15HAL_MX_RTC_Initv+0xb0>)
 80040b6:	f7fe f80e 	bl	80020d6 <HAL_RTC_SetDate>
 80040ba:	b108      	cbz	r0, 80040c0 <_Z15HAL_MX_RTC_Initv+0x78>
 80040bc:	f7fc f8ea 	bl	8000294 <Error_Handler>
 80040c0:	2300      	movs	r3, #0
 80040c2:	f04f 4200 	mov.w	r2, #2147483648	; 0x80000000
 80040c6:	f8ad 301c 	strh.w	r3, [sp, #28]
 80040ca:	f88d 301e 	strb.w	r3, [sp, #30]
 80040ce:	9308      	str	r3, [sp, #32]
 80040d0:	e9cd 330a 	strd	r3, r3, [sp, #40]	; 0x28
 80040d4:	920c      	str	r2, [sp, #48]	; 0x30
 80040d6:	e9cd 330e 	strd	r3, r3, [sp, #56]	; 0x38
 80040da:	2201      	movs	r2, #1
 80040dc:	f44f 7380 	mov.w	r3, #256	; 0x100
 80040e0:	a907      	add	r1, sp, #28
 80040e2:	4805      	ldr	r0, [pc, #20]	; (80040f8 <_Z15HAL_MX_RTC_Initv+0xb0>)
 80040e4:	f88d 2040 	strb.w	r2, [sp, #64]	; 0x40
 80040e8:	9311      	str	r3, [sp, #68]	; 0x44
 80040ea:	f7fe f83d 	bl	8002168 <HAL_RTC_SetAlarm_IT>
 80040ee:	b108      	cbz	r0, 80040f4 <_Z15HAL_MX_RTC_Initv+0xac>
 80040f0:	f7fc f8d0 	bl	8000294 <Error_Handler>
 80040f4:	b012      	add	sp, #72	; 0x48
 80040f6:	bd10      	pop	{r4, pc}
 80040f8:	200003c0 	.word	0x200003c0
 80040fc:	40002800 	.word	0x40002800
 8004100:	20090807 	.word	0x20090807

08004104 <_ZN11STM32L4_HAL14HAL_driverInitEv>:
 8004104:	b510      	push	{r4, lr}
 8004106:	f7fd f817 	bl	8001138 <HAL_PWR_EnableBkUpAccess>
 800410a:	481c      	ldr	r0, [pc, #112]	; (800417c <_ZN11STM32L4_HAL14HAL_driverInitEv+0x78>)
 800410c:	4a1c      	ldr	r2, [pc, #112]	; (8004180 <_ZN11STM32L4_HAL14HAL_driverInitEv+0x7c>)
 800410e:	4c1d      	ldr	r4, [pc, #116]	; (8004184 <_ZN11STM32L4_HAL14HAL_driverInitEv+0x80>)
 8004110:	2300      	movs	r3, #0
 8004112:	e9c0 2300 	strd	r2, r3, [r0]
 8004116:	217f      	movs	r1, #127	; 0x7f
 8004118:	22ff      	movs	r2, #255	; 0xff
 800411a:	e9c0 1202 	strd	r1, r2, [r0, #8]
 800411e:	211e      	movs	r1, #30
 8004120:	e9c0 3304 	strd	r3, r3, [r0, #16]
 8004124:	e9c0 3306 	strd	r3, r3, [r0, #24]
 8004128:	f7fe f975 	bl	8002416 <HAL_RTCEx_BKUPRead>
 800412c:	f8d4 3090 	ldr.w	r3, [r4, #144]	; 0x90
 8004130:	f413 7f40 	tst.w	r3, #768	; 0x300
 8004134:	d001      	beq.n	800413a <_ZN11STM32L4_HAL14HAL_driverInitEv+0x36>
 8004136:	0783      	lsls	r3, r0, #30
 8004138:	d51b      	bpl.n	8004172 <_ZN11STM32L4_HAL14HAL_driverInitEv+0x6e>
 800413a:	f8d4 3090 	ldr.w	r3, [r4, #144]	; 0x90
 800413e:	f023 0318 	bic.w	r3, r3, #24
 8004142:	f8c4 3090 	str.w	r3, [r4, #144]	; 0x90
 8004146:	f8d4 3090 	ldr.w	r3, [r4, #144]	; 0x90
 800414a:	f043 0301 	orr.w	r3, r3, #1
 800414e:	f8c4 3090 	str.w	r3, [r4, #144]	; 0x90
 8004152:	f8d4 3090 	ldr.w	r3, [r4, #144]	; 0x90
 8004156:	f423 7340 	bic.w	r3, r3, #768	; 0x300
 800415a:	f443 7380 	orr.w	r3, r3, #256	; 0x100
 800415e:	f8c4 3090 	str.w	r3, [r4, #144]	; 0x90
 8004162:	f7ff ff71 	bl	8004048 <_Z15HAL_MX_RTC_Initv>
 8004166:	f8d4 3090 	ldr.w	r3, [r4, #144]	; 0x90
 800416a:	f443 4300 	orr.w	r3, r3, #32768	; 0x8000
 800416e:	f8c4 3090 	str.w	r3, [r4, #144]	; 0x90
 8004172:	e8bd 4010 	ldmia.w	sp!, {r4, lr}
 8004176:	f7fd b8bb 	b.w	80012f0 <HAL_PWREx_EnableLowPowerRunMode>
 800417a:	bf00      	nop
 800417c:	200003c0 	.word	0x200003c0
 8004180:	40002800 	.word	0x40002800
 8004184:	40021000 	.word	0x40021000

08004188 <_ZN11STM32L4_HAL8setupBMAEv>:
 8004188:	b530      	push	{r4, r5, lr}
 800418a:	4c3d      	ldr	r4, [pc, #244]	; (8004280 <_ZN11STM32L4_HAL8setupBMAEv+0xf8>)
 800418c:	b085      	sub	sp, #20
 800418e:	4605      	mov	r5, r0
 8004190:	4620      	mov	r0, r4
 8004192:	f000 fd7a 	bl	8004c8a <_ZN9Bosch_BMA9getChipIDEv>
 8004196:	2816      	cmp	r0, #22
 8004198:	d008      	beq.n	80041ac <_ZN11STM32L4_HAL8setupBMAEv+0x24>
 800419a:	4620      	mov	r0, r4
 800419c:	f000 fd75 	bl	8004c8a <_ZN9Bosch_BMA9getChipIDEv>
 80041a0:	2101      	movs	r1, #1
 80041a2:	4602      	mov	r2, r0
 80041a4:	4628      	mov	r0, r5
 80041a6:	f7ff ff49 	bl	800403c <_ZN11STM32L4_HAL9showERROREhh>
 80041aa:	e7f1      	b.n	8004190 <_ZN11STM32L4_HAL8setupBMAEv+0x8>
 80041ac:	4834      	ldr	r0, [pc, #208]	; (8004280 <_ZN11STM32L4_HAL8setupBMAEv+0xf8>)
 80041ae:	f000 fd70 	bl	8004c92 <_ZN9Bosch_BMA4initEv>
 80041b2:	4833      	ldr	r0, [pc, #204]	; (8004280 <_ZN11STM32L4_HAL8setupBMAEv+0xf8>)
 80041b4:	f000 fdd8 	bl	8004d68 <_ZN9Bosch_BMA20startInterruptConfigEv>
 80041b8:	2301      	movs	r3, #1
 80041ba:	2205      	movs	r2, #5
 80041bc:	2100      	movs	r1, #0
 80041be:	4830      	ldr	r0, [pc, #192]	; (8004280 <_ZN11STM32L4_HAL8setupBMAEv+0xf8>)
 80041c0:	f000 fddc 	bl	8004d7c <_ZN9Bosch_BMA15setTapDetectionEhhh>
 80041c4:	2101      	movs	r1, #1
 80041c6:	482e      	ldr	r0, [pc, #184]	; (8004280 <_ZN11STM32L4_HAL8setupBMAEv+0xf8>)
 80041c8:	f000 fdf3 	bl	8004db2 <_ZN9Bosch_BMA11setConfigIDEh>
 80041cc:	2400      	movs	r4, #0
 80041ce:	2302      	movs	r3, #2
 80041d0:	4622      	mov	r2, r4
 80041d2:	e9cd 3401 	strd	r3, r4, [sp, #4]
 80041d6:	4621      	mov	r1, r4
 80041d8:	2301      	movs	r3, #1
 80041da:	9400      	str	r4, [sp, #0]
 80041dc:	4828      	ldr	r0, [pc, #160]	; (8004280 <_ZN11STM32L4_HAL8setupBMAEv+0xf8>)
 80041de:	f000 fdeb 	bl	8004db8 <_ZN9Bosch_BMA14setAxisMappingEhhhhhh>
 80041e2:	2101      	movs	r1, #1
 80041e4:	4826      	ldr	r0, [pc, #152]	; (8004280 <_ZN11STM32L4_HAL8setupBMAEv+0xf8>)
 80041e6:	f000 fdd6 	bl	8004d96 <_ZN9Bosch_BMA20setWristTiltFunctionEh>
 80041ea:	2101      	movs	r1, #1
 80041ec:	4824      	ldr	r0, [pc, #144]	; (8004280 <_ZN11STM32L4_HAL8setupBMAEv+0xf8>)
 80041ee:	f000 fdd7 	bl	8004da0 <_ZN9Bosch_BMA14setStepCounterEh>
 80041f2:	4823      	ldr	r0, [pc, #140]	; (8004280 <_ZN11STM32L4_HAL8setupBMAEv+0xf8>)
 80041f4:	f000 fdbd 	bl	8004d72 <_ZN9Bosch_BMA20writeInterruptConfigEv>
 80041f8:	4621      	mov	r1, r4
 80041fa:	22b0      	movs	r2, #176	; 0xb0
 80041fc:	4820      	ldr	r0, [pc, #128]	; (8004280 <_ZN11STM32L4_HAL8setupBMAEv+0xf8>)
 80041fe:	4c20      	ldr	r4, [pc, #128]	; (8004280 <_ZN11STM32L4_HAL8setupBMAEv+0xf8>)
 8004200:	f000 fd3b 	bl	8004c7a <_ZN9Bosch_BMA12writeAddressEhh>
 8004204:	2228      	movs	r2, #40	; 0x28
 8004206:	2156      	movs	r1, #86	; 0x56
 8004208:	481d      	ldr	r0, [pc, #116]	; (8004280 <_ZN11STM32L4_HAL8setupBMAEv+0xf8>)
 800420a:	f000 fd36 	bl	8004c7a <_ZN9Bosch_BMA12writeAddressEhh>
 800420e:	220a      	movs	r2, #10
 8004210:	2153      	movs	r1, #83	; 0x53
 8004212:	481b      	ldr	r0, [pc, #108]	; (8004280 <_ZN11STM32L4_HAL8setupBMAEv+0xf8>)
 8004214:	f000 fd31 	bl	8004c7a <_ZN9Bosch_BMA12writeAddressEhh>
 8004218:	2201      	movs	r2, #1
 800421a:	2155      	movs	r1, #85	; 0x55
 800421c:	4818      	ldr	r0, [pc, #96]	; (8004280 <_ZN11STM32L4_HAL8setupBMAEv+0xf8>)
 800421e:	f000 fd2c 	bl	8004c7a <_ZN9Bosch_BMA12writeAddressEhh>
 8004222:	2209      	movs	r2, #9
 8004224:	2140      	movs	r1, #64	; 0x40
 8004226:	4816      	ldr	r0, [pc, #88]	; (8004280 <_ZN11STM32L4_HAL8setupBMAEv+0xf8>)
 8004228:	f000 fd27 	bl	8004c7a <_ZN9Bosch_BMA12writeAddressEhh>
 800422c:	2201      	movs	r2, #1
 800422e:	217c      	movs	r1, #124	; 0x7c
 8004230:	4813      	ldr	r0, [pc, #76]	; (8004280 <_ZN11STM32L4_HAL8setupBMAEv+0xf8>)
 8004232:	f000 fd22 	bl	8004c7a <_ZN9Bosch_BMA12writeAddressEhh>
 8004236:	2209      	movs	r2, #9
 8004238:	2140      	movs	r1, #64	; 0x40
 800423a:	4811      	ldr	r0, [pc, #68]	; (8004280 <_ZN11STM32L4_HAL8setupBMAEv+0xf8>)
 800423c:	f000 fd1d 	bl	8004c7a <_ZN9Bosch_BMA12writeAddressEhh>
 8004240:	4620      	mov	r0, r4
 8004242:	f000 fd5c 	bl	8004cfe <_ZN9Bosch_BMA16getInternalStateEv>
 8004246:	07c3      	lsls	r3, r0, #31
 8004248:	d50e      	bpl.n	8004268 <_ZN11STM32L4_HAL8setupBMAEv+0xe0>
 800424a:	4c0d      	ldr	r4, [pc, #52]	; (8004280 <_ZN11STM32L4_HAL8setupBMAEv+0xf8>)
 800424c:	4620      	mov	r0, r4
 800424e:	f000 fd56 	bl	8004cfe <_ZN9Bosch_BMA16getInternalStateEv>
 8004252:	2801      	cmp	r0, #1
 8004254:	d011      	beq.n	800427a <_ZN11STM32L4_HAL8setupBMAEv+0xf2>
 8004256:	4620      	mov	r0, r4
 8004258:	f000 fd51 	bl	8004cfe <_ZN9Bosch_BMA16getInternalStateEv>
 800425c:	2103      	movs	r1, #3
 800425e:	4602      	mov	r2, r0
 8004260:	4628      	mov	r0, r5
 8004262:	f7ff feeb 	bl	800403c <_ZN11STM32L4_HAL9showERROREhh>
 8004266:	e7f1      	b.n	800424c <_ZN11STM32L4_HAL8setupBMAEv+0xc4>
 8004268:	4620      	mov	r0, r4
 800426a:	f000 fd48 	bl	8004cfe <_ZN9Bosch_BMA16getInternalStateEv>
 800426e:	2102      	movs	r1, #2
 8004270:	4602      	mov	r2, r0
 8004272:	4628      	mov	r0, r5
 8004274:	f7ff fee2 	bl	800403c <_ZN11STM32L4_HAL9showERROREhh>
 8004278:	e7e2      	b.n	8004240 <_ZN11STM32L4_HAL8setupBMAEv+0xb8>
 800427a:	b005      	add	sp, #20
 800427c:	bd30      	pop	{r4, r5, pc}
 800427e:	bf00      	nop
 8004280:	2000000c 	.word	0x2000000c

08004284 <_ZN11STM32L4_HAL17setDisplayManagerEP14DisplayManager>:
 8004284:	6041      	str	r1, [r0, #4]
 8004286:	4770      	bx	lr

08004288 <_ZN11STM32L4_HAL11updateStepsEv>:
 8004288:	b510      	push	{r4, lr}
 800428a:	4604      	mov	r4, r0
 800428c:	4805      	ldr	r0, [pc, #20]	; (80042a4 <_ZN11STM32L4_HAL11updateStepsEv+0x1c>)
 800428e:	f000 fd61 	bl	8004d54 <_ZN9Bosch_BMA8getStepsEv>
 8004292:	68e3      	ldr	r3, [r4, #12]
 8004294:	4283      	cmp	r3, r0
 8004296:	bf84      	itt	hi
 8004298:	2300      	movhi	r3, #0
 800429a:	60e3      	strhi	r3, [r4, #12]
 800429c:	68e3      	ldr	r3, [r4, #12]
 800429e:	1ac0      	subs	r0, r0, r3
 80042a0:	6120      	str	r0, [r4, #16]
 80042a2:	bd10      	pop	{r4, pc}
 80042a4:	2000000c 	.word	0x2000000c

080042a8 <_ZN11STM32L4_HAL12pushNewStepsEt>:
 80042a8:	b510      	push	{r4, lr}
 80042aa:	f100 0322 	add.w	r3, r0, #34	; 0x22
 80042ae:	f100 0214 	add.w	r2, r0, #20
 80042b2:	f833 4c02 	ldrh.w	r4, [r3, #-2]
 80042b6:	f823 4902 	strh.w	r4, [r3], #-2
 80042ba:	4293      	cmp	r3, r2
 80042bc:	d1f9      	bne.n	80042b2 <_ZN11STM32L4_HAL12pushNewStepsEt+0xa>
 80042be:	8281      	strh	r1, [r0, #20]
 80042c0:	bd10      	pop	{r4, pc}
	...

080042c4 <_ZN11STM32L4_HAL8HAL_initEv>:
 80042c4:	b5f0      	push	{r4, r5, r6, r7, lr}
 80042c6:	2201      	movs	r2, #1
 80042c8:	b087      	sub	sp, #28
 80042ca:	2140      	movs	r1, #64	; 0x40
 80042cc:	4604      	mov	r4, r0
 80042ce:	4879      	ldr	r0, [pc, #484]	; (80044b4 <_ZN11STM32L4_HAL8HAL_initEv+0x1f0>)
 80042d0:	f7fc ff2c 	bl	800112c <HAL_GPIO_WritePin>
 80042d4:	2500      	movs	r5, #0
 80042d6:	2340      	movs	r3, #64	; 0x40
 80042d8:	2601      	movs	r6, #1
 80042da:	a901      	add	r1, sp, #4
 80042dc:	4875      	ldr	r0, [pc, #468]	; (80044b4 <_ZN11STM32L4_HAL8HAL_initEv+0x1f0>)
 80042de:	9505      	str	r5, [sp, #20]
 80042e0:	e9cd 3601 	strd	r3, r6, [sp, #4]
 80042e4:	e9cd 5503 	strd	r5, r5, [sp, #12]
 80042e8:	f7fc fe60 	bl	8000fac <HAL_GPIO_Init>
 80042ec:	a901      	add	r1, sp, #4
 80042ee:	f04f 4090 	mov.w	r0, #1207959552	; 0x48000000
 80042f2:	e9cd 6501 	strd	r6, r5, [sp, #4]
 80042f6:	9503      	str	r5, [sp, #12]
 80042f8:	f7fc fe58 	bl	8000fac <HAL_GPIO_Init>
 80042fc:	4b6e      	ldr	r3, [pc, #440]	; (80044b8 <_ZN11STM32L4_HAL8HAL_initEv+0x1f4>)
 80042fe:	691b      	ldr	r3, [r3, #16]
 8004300:	05db      	lsls	r3, r3, #23
 8004302:	d511      	bpl.n	8004328 <_ZN11STM32L4_HAL8HAL_initEv+0x64>
 8004304:	4b6d      	ldr	r3, [pc, #436]	; (80044bc <_ZN11STM32L4_HAL8HAL_initEv+0x1f8>)
 8004306:	681a      	ldr	r2, [r3, #0]
 8004308:	68d3      	ldr	r3, [r2, #12]
 800430a:	05df      	lsls	r7, r3, #23
 800430c:	d505      	bpl.n	800431a <_ZN11STM32L4_HAL8HAL_initEv+0x56>
 800430e:	7266      	strb	r6, [r4, #9]
 8004310:	68d3      	ldr	r3, [r2, #12]
 8004312:	b2db      	uxtb	r3, r3
 8004314:	f463 73c0 	orn	r3, r3, #384	; 0x180
 8004318:	60d3      	str	r3, [r2, #12]
 800431a:	2001      	movs	r0, #1
 800431c:	f7fc ff24 	bl	8001168 <HAL_PWR_DisableWakeUpPin>
 8004320:	4b65      	ldr	r3, [pc, #404]	; (80044b8 <_ZN11STM32L4_HAL8HAL_initEv+0x1f4>)
 8004322:	f44f 7280 	mov.w	r2, #256	; 0x100
 8004326:	619a      	str	r2, [r3, #24]
 8004328:	4865      	ldr	r0, [pc, #404]	; (80044c0 <_ZN11STM32L4_HAL8HAL_initEv+0x1fc>)
 800432a:	f000 fda5 	bl	8004e78 <_Z19set_SPI_activate_CSPFvhE>
 800432e:	f7fb ff91 	bl	8000254 <MX_SPI1_Init>
 8004332:	4862      	ldr	r0, [pc, #392]	; (80044bc <_ZN11STM32L4_HAL8HAL_initEv+0x1f8>)
 8004334:	f7fd fdc0 	bl	8001eb8 <HAL_RTC_WaitForSynchro>
 8004338:	f000 facc 	bl	80048d4 <_Z8spi_initv>
 800433c:	f000 fe62 	bl	8005004 <_Z13initComDriverv>
 8004340:	2100      	movs	r1, #0
 8004342:	485e      	ldr	r0, [pc, #376]	; (80044bc <_ZN11STM32L4_HAL8HAL_initEv+0x1f8>)
 8004344:	f7fe f867 	bl	8002416 <HAL_RTCEx_BKUPRead>
 8004348:	2801      	cmp	r0, #1
 800434a:	4601      	mov	r1, r0
 800434c:	f040 8083 	bne.w	8004456 <_ZN11STM32L4_HAL8HAL_initEv+0x192>
 8004350:	485a      	ldr	r0, [pc, #360]	; (80044bc <_ZN11STM32L4_HAL8HAL_initEv+0x1f8>)
 8004352:	4f5a      	ldr	r7, [pc, #360]	; (80044bc <_ZN11STM32L4_HAL8HAL_initEv+0x1f8>)
 8004354:	f7fe f85f 	bl	8002416 <HAL_RTCEx_BKUPRead>
 8004358:	f104 0614 	add.w	r6, r4, #20
 800435c:	60e0      	str	r0, [r4, #12]
 800435e:	2504      	movs	r5, #4
 8004360:	4629      	mov	r1, r5
 8004362:	4638      	mov	r0, r7
 8004364:	f7fe f857 	bl	8002416 <HAL_RTCEx_BKUPRead>
 8004368:	3501      	adds	r5, #1
 800436a:	2d0c      	cmp	r5, #12
 800436c:	f826 0b02 	strh.w	r0, [r6], #2
 8004370:	d1f6      	bne.n	8004360 <_ZN11STM32L4_HAL8HAL_initEv+0x9c>
 8004372:	4854      	ldr	r0, [pc, #336]	; (80044c4 <_ZN11STM32L4_HAL8HAL_initEv+0x200>)
 8004374:	f000 fcc3 	bl	8004cfe <_ZN9Bosch_BMA16getInternalStateEv>
 8004378:	4852      	ldr	r0, [pc, #328]	; (80044c4 <_ZN11STM32L4_HAL8HAL_initEv+0x200>)
 800437a:	f000 fcc0 	bl	8004cfe <_ZN9Bosch_BMA16getInternalStateEv>
 800437e:	2801      	cmp	r0, #1
 8004380:	4601      	mov	r1, r0
 8004382:	d07a      	beq.n	800447a <_ZN11STM32L4_HAL8HAL_initEv+0x1b6>
 8004384:	4620      	mov	r0, r4
 8004386:	f7ff feff 	bl	8004188 <_ZN11STM32L4_HAL8setupBMAEv>
 800438a:	4d4f      	ldr	r5, [pc, #316]	; (80044c8 <_ZN11STM32L4_HAL8HAL_initEv+0x204>)
 800438c:	4628      	mov	r0, r5
 800438e:	f7fe fcf5 	bl	8002d7c <_ZN6ClockM10updateTimeEv>
 8004392:	7a29      	ldrb	r1, [r5, #8]
 8004394:	6860      	ldr	r0, [r4, #4]
 8004396:	2218      	movs	r2, #24
 8004398:	fbb1 f3f2 	udiv	r3, r1, r2
 800439c:	fb02 1313 	mls	r3, r2, r3, r1
 80043a0:	b2db      	uxtb	r3, r3
 80043a2:	6802      	ldr	r2, [r0, #0]
 80043a4:	4949      	ldr	r1, [pc, #292]	; (80044cc <_ZN11STM32L4_HAL8HAL_initEv+0x208>)
 80043a6:	6952      	ldr	r2, [r2, #20]
 80043a8:	5cc9      	ldrb	r1, [r1, r3]
 80043aa:	4790      	blx	r2
 80043ac:	2103      	movs	r1, #3
 80043ae:	4843      	ldr	r0, [pc, #268]	; (80044bc <_ZN11STM32L4_HAL8HAL_initEv+0x1f8>)
 80043b0:	f7fe f831 	bl	8002416 <HAL_RTCEx_BKUPRead>
 80043b4:	b9a8      	cbnz	r0, 80043e2 <_ZN11STM32L4_HAL8HAL_initEv+0x11e>
 80043b6:	f7fb ff13 	bl	80001e0 <MX_ADC1_Init>
 80043ba:	2064      	movs	r0, #100	; 0x64
 80043bc:	f7fc f88e 	bl	80004dc <HAL_Delay>
 80043c0:	217f      	movs	r1, #127	; 0x7f
 80043c2:	4843      	ldr	r0, [pc, #268]	; (80044d0 <_ZN11STM32L4_HAL8HAL_initEv+0x20c>)
 80043c4:	f7fc fcec 	bl	8000da0 <HAL_ADCEx_Calibration_Start>
 80043c8:	200a      	movs	r0, #10
 80043ca:	f7fc f887 	bl	80004dc <HAL_Delay>
 80043ce:	217f      	movs	r1, #127	; 0x7f
 80043d0:	483f      	ldr	r0, [pc, #252]	; (80044d0 <_ZN11STM32L4_HAL8HAL_initEv+0x20c>)
 80043d2:	f7fc fd31 	bl	8000e38 <HAL_ADCEx_Calibration_GetValue>
 80043d6:	2103      	movs	r1, #3
 80043d8:	f040 5280 	orr.w	r2, r0, #268435456	; 0x10000000
 80043dc:	4837      	ldr	r0, [pc, #220]	; (80044bc <_ZN11STM32L4_HAL8HAL_initEv+0x1f8>)
 80043de:	f7fe f80e 	bl	80023fe <HAL_RTCEx_BKUPWrite>
 80043e2:	7a63      	ldrb	r3, [r4, #9]
 80043e4:	2b0f      	cmp	r3, #15
 80043e6:	d914      	bls.n	8004412 <_ZN11STM32L4_HAL8HAL_initEv+0x14e>
 80043e8:	f7fb fefa 	bl	80001e0 <MX_ADC1_Init>
 80043ec:	4838      	ldr	r0, [pc, #224]	; (80044d0 <_ZN11STM32L4_HAL8HAL_initEv+0x20c>)
 80043ee:	f7fc fc41 	bl	8000c74 <HAL_ADC_Start>
 80043f2:	2103      	movs	r1, #3
 80043f4:	4831      	ldr	r0, [pc, #196]	; (80044bc <_ZN11STM32L4_HAL8HAL_initEv+0x1f8>)
 80043f6:	f7fe f80e 	bl	8002416 <HAL_RTCEx_BKUPRead>
 80043fa:	217f      	movs	r1, #127	; 0x7f
 80043fc:	f000 027f 	and.w	r2, r0, #127	; 0x7f
 8004400:	4833      	ldr	r0, [pc, #204]	; (80044d0 <_ZN11STM32L4_HAL8HAL_initEv+0x20c>)
 8004402:	f7fc fd24 	bl	8000e4e <HAL_ADCEx_Calibration_SetValue>
 8004406:	4832      	ldr	r0, [pc, #200]	; (80044d0 <_ZN11STM32L4_HAL8HAL_initEv+0x20c>)
 8004408:	f7fc fca7 	bl	8000d5a <HAL_ADC_Stop>
 800440c:	2301      	movs	r3, #1
 800440e:	f884 3027 	strb.w	r3, [r4, #39]	; 0x27
 8004412:	2201      	movs	r2, #1
 8004414:	2100      	movs	r1, #0
 8004416:	4829      	ldr	r0, [pc, #164]	; (80044bc <_ZN11STM32L4_HAL8HAL_initEv+0x1f8>)
 8004418:	f7fd fff1 	bl	80023fe <HAL_RTCEx_BKUPWrite>
 800441c:	211e      	movs	r1, #30
 800441e:	4827      	ldr	r0, [pc, #156]	; (80044bc <_ZN11STM32L4_HAL8HAL_initEv+0x1f8>)
 8004420:	f7fd fff9 	bl	8002416 <HAL_RTCEx_BKUPRead>
 8004424:	07c3      	lsls	r3, r0, #31
 8004426:	d511      	bpl.n	800444c <_ZN11STM32L4_HAL8HAL_initEv+0x188>
 8004428:	211d      	movs	r1, #29
 800442a:	4824      	ldr	r0, [pc, #144]	; (80044bc <_ZN11STM32L4_HAL8HAL_initEv+0x1f8>)
 800442c:	f7fd fff3 	bl	8002416 <HAL_RTCEx_BKUPRead>
 8004430:	b281      	uxth	r1, r0
 8004432:	4620      	mov	r0, r4
 8004434:	f7ff ff38 	bl	80042a8 <_ZN11STM32L4_HAL12pushNewStepsEt>
 8004438:	211e      	movs	r1, #30
 800443a:	4820      	ldr	r0, [pc, #128]	; (80044bc <_ZN11STM32L4_HAL8HAL_initEv+0x1f8>)
 800443c:	f7fd ffeb 	bl	8002416 <HAL_RTCEx_BKUPRead>
 8004440:	211e      	movs	r1, #30
 8004442:	f020 0201 	bic.w	r2, r0, #1
 8004446:	481d      	ldr	r0, [pc, #116]	; (80044bc <_ZN11STM32L4_HAL8HAL_initEv+0x1f8>)
 8004448:	f7fd ffd9 	bl	80023fe <HAL_RTCEx_BKUPWrite>
 800444c:	2001      	movs	r0, #1
 800444e:	f7fc fe7b 	bl	8001148 <HAL_PWR_EnableWakeUpPin>
 8004452:	b007      	add	sp, #28
 8004454:	bdf0      	pop	{r4, r5, r6, r7, pc}
 8004456:	23ff      	movs	r3, #255	; 0xff
 8004458:	7263      	strb	r3, [r4, #9]
 800445a:	4b1e      	ldr	r3, [pc, #120]	; (80044d4 <_ZN11STM32L4_HAL8HAL_initEv+0x210>)
 800445c:	681b      	ldr	r3, [r3, #0]
 800445e:	6819      	ldr	r1, [r3, #0]
 8004460:	b28a      	uxth	r2, r1
 8004462:	f3c2 0308 	ubfx	r3, r2, #0, #9
 8004466:	b90b      	cbnz	r3, 800446c <_ZN11STM32L4_HAL8HAL_initEv+0x1a8>
 8004468:	040d      	lsls	r5, r1, #16
 800446a:	d582      	bpl.n	8004372 <_ZN11STM32L4_HAL8HAL_initEv+0xae>
 800446c:	f402 4200 	and.w	r2, r2, #32768	; 0x8000
 8004470:	2100      	movs	r1, #0
 8004472:	4812      	ldr	r0, [pc, #72]	; (80044bc <_ZN11STM32L4_HAL8HAL_initEv+0x1f8>)
 8004474:	f7fd ff7d 	bl	8002372 <HAL_RTCEx_SetSmoothCalib>
 8004478:	e77b      	b.n	8004372 <_ZN11STM32L4_HAL8HAL_initEv+0xae>
 800447a:	f04f 4090 	mov.w	r0, #1207959552	; 0x48000000
 800447e:	f7fc fe4f 	bl	8001120 <HAL_GPIO_ReadPin>
 8004482:	2801      	cmp	r0, #1
 8004484:	d108      	bne.n	8004498 <_ZN11STM32L4_HAL8HAL_initEv+0x1d4>
 8004486:	211c      	movs	r1, #28
 8004488:	480e      	ldr	r0, [pc, #56]	; (80044c4 <_ZN11STM32L4_HAL8HAL_initEv+0x200>)
 800448a:	f000 fbfa 	bl	8004c82 <_ZN9Bosch_BMA11readAddressEh>
 800448e:	4602      	mov	r2, r0
 8004490:	0710      	lsls	r0, r2, #28
 8004492:	d505      	bpl.n	80044a0 <_ZN11STM32L4_HAL8HAL_initEv+0x1dc>
 8004494:	2313      	movs	r3, #19
 8004496:	7263      	strb	r3, [r4, #9]
 8004498:	4620      	mov	r0, r4
 800449a:	f7ff fef5 	bl	8004288 <_ZN11STM32L4_HAL11updateStepsEv>
 800449e:	e774      	b.n	800438a <_ZN11STM32L4_HAL8HAL_initEv+0xc6>
 80044a0:	0691      	lsls	r1, r2, #26
 80044a2:	d501      	bpl.n	80044a8 <_ZN11STM32L4_HAL8HAL_initEv+0x1e4>
 80044a4:	2312      	movs	r3, #18
 80044a6:	e7f6      	b.n	8004496 <_ZN11STM32L4_HAL8HAL_initEv+0x1d2>
 80044a8:	2104      	movs	r1, #4
 80044aa:	4620      	mov	r0, r4
 80044ac:	f7ff fdc6 	bl	800403c <_ZN11STM32L4_HAL9showERROREhh>
 80044b0:	e7f2      	b.n	8004498 <_ZN11STM32L4_HAL8HAL_initEv+0x1d4>
 80044b2:	bf00      	nop
 80044b4:	48000400 	.word	0x48000400
 80044b8:	40007000 	.word	0x40007000
 80044bc:	200003c0 	.word	0x200003c0
 80044c0:	08004029 	.word	0x08004029
 80044c4:	2000000c 	.word	0x2000000c
 80044c8:	2000009c 	.word	0x2000009c
 80044cc:	080053a0 	.word	0x080053a0
 80044d0:	2000035c 	.word	0x2000035c
 80044d4:	200000c8 	.word	0x200000c8

080044d8 <_ZN11STM32L4_HAL10resetStepsEv>:
 80044d8:	b538      	push	{r3, r4, r5, lr}
 80044da:	4d08      	ldr	r5, [pc, #32]	; (80044fc <_ZN11STM32L4_HAL10resetStepsEv+0x24>)
 80044dc:	4604      	mov	r4, r0
 80044de:	4628      	mov	r0, r5
 80044e0:	f000 fc38 	bl	8004d54 <_ZN9Bosch_BMA8getStepsEv>
 80044e4:	68e1      	ldr	r1, [r4, #12]
 80044e6:	1a41      	subs	r1, r0, r1
 80044e8:	b289      	uxth	r1, r1
 80044ea:	4620      	mov	r0, r4
 80044ec:	f7ff fedc 	bl	80042a8 <_ZN11STM32L4_HAL12pushNewStepsEt>
 80044f0:	4628      	mov	r0, r5
 80044f2:	f000 fc2f 	bl	8004d54 <_ZN9Bosch_BMA8getStepsEv>
 80044f6:	60e0      	str	r0, [r4, #12]
 80044f8:	bd38      	pop	{r3, r4, r5, pc}
 80044fa:	bf00      	nop
 80044fc:	2000000c 	.word	0x2000000c

08004500 <_ZN11STM32L4_HAL10HAL_cyclicEv>:
 8004500:	b5f0      	push	{r4, r5, r6, r7, lr}
 8004502:	f890 3027 	ldrb.w	r3, [r0, #39]	; 0x27
 8004506:	2b01      	cmp	r3, #1
 8004508:	b097      	sub	sp, #92	; 0x5c
 800450a:	4605      	mov	r5, r0
 800450c:	d04c      	beq.n	80045a8 <_ZN11STM32L4_HAL10HAL_cyclicEv+0xa8>
 800450e:	2b02      	cmp	r3, #2
 8004510:	d055      	beq.n	80045be <_ZN11STM32L4_HAL10HAL_cyclicEv+0xbe>
 8004512:	4c55      	ldr	r4, [pc, #340]	; (8004668 <_ZN11STM32L4_HAL10HAL_cyclicEv+0x168>)
 8004514:	6868      	ldr	r0, [r5, #4]
 8004516:	7a21      	ldrb	r1, [r4, #8]
 8004518:	2218      	movs	r2, #24
 800451a:	fbb1 f3f2 	udiv	r3, r1, r2
 800451e:	fb02 1313 	mls	r3, r2, r3, r1
 8004522:	b2db      	uxtb	r3, r3
 8004524:	6802      	ldr	r2, [r0, #0]
 8004526:	4951      	ldr	r1, [pc, #324]	; (800466c <_ZN11STM32L4_HAL10HAL_cyclicEv+0x16c>)
 8004528:	6952      	ldr	r2, [r2, #20]
 800452a:	5cc9      	ldrb	r1, [r1, r3]
 800452c:	4790      	blx	r2
 800452e:	2102      	movs	r1, #2
 8004530:	484f      	ldr	r0, [pc, #316]	; (8004670 <_ZN11STM32L4_HAL10HAL_cyclicEv+0x170>)
 8004532:	f7fd ff70 	bl	8002416 <HAL_RTCEx_BKUPRead>
 8004536:	7fe2      	ldrb	r2, [r4, #31]
 8004538:	7f63      	ldrb	r3, [r4, #29]
 800453a:	f242 7610 	movw	r6, #10000	; 0x2710
 800453e:	4372      	muls	r2, r6
 8004540:	2764      	movs	r7, #100	; 0x64
 8004542:	fb17 2303 	smlabb	r3, r7, r3, r2
 8004546:	7fa2      	ldrb	r2, [r4, #30]
 8004548:	4413      	add	r3, r2
 800454a:	4298      	cmp	r0, r3
 800454c:	d02a      	beq.n	80045a4 <_ZN11STM32L4_HAL10HAL_cyclicEv+0xa4>
 800454e:	f7fb ffbf 	bl	80004d0 <HAL_GetTick>
 8004552:	2863      	cmp	r0, #99	; 0x63
 8004554:	d826      	bhi.n	80045a4 <_ZN11STM32L4_HAL10HAL_cyclicEv+0xa4>
 8004556:	2102      	movs	r1, #2
 8004558:	4845      	ldr	r0, [pc, #276]	; (8004670 <_ZN11STM32L4_HAL10HAL_cyclicEv+0x170>)
 800455a:	f7fd ff5c 	bl	8002416 <HAL_RTCEx_BKUPRead>
 800455e:	7f62      	ldrb	r2, [r4, #29]
 8004560:	7fe3      	ldrb	r3, [r4, #31]
 8004562:	fb12 f207 	smulbb	r2, r2, r7
 8004566:	fb06 2303 	mla	r3, r6, r3, r2
 800456a:	7fa2      	ldrb	r2, [r4, #30]
 800456c:	4413      	add	r3, r2
 800456e:	4298      	cmp	r0, r3
 8004570:	d261      	bcs.n	8004636 <_ZN11STM32L4_HAL10HAL_cyclicEv+0x136>
 8004572:	4840      	ldr	r0, [pc, #256]	; (8004674 <_ZN11STM32L4_HAL10HAL_cyclicEv+0x174>)
 8004574:	f000 fbee 	bl	8004d54 <_ZN9Bosch_BMA8getStepsEv>
 8004578:	68e9      	ldr	r1, [r5, #12]
 800457a:	1a41      	subs	r1, r0, r1
 800457c:	b289      	uxth	r1, r1
 800457e:	4628      	mov	r0, r5
 8004580:	f7ff fe92 	bl	80042a8 <_ZN11STM32L4_HAL12pushNewStepsEt>
 8004584:	483b      	ldr	r0, [pc, #236]	; (8004674 <_ZN11STM32L4_HAL10HAL_cyclicEv+0x174>)
 8004586:	f000 fbe5 	bl	8004d54 <_ZN9Bosch_BMA8getStepsEv>
 800458a:	60e8      	str	r0, [r5, #12]
 800458c:	7f63      	ldrb	r3, [r4, #29]
 800458e:	7fe2      	ldrb	r2, [r4, #31]
 8004590:	4837      	ldr	r0, [pc, #220]	; (8004670 <_ZN11STM32L4_HAL10HAL_cyclicEv+0x170>)
 8004592:	fb13 f707 	smulbb	r7, r3, r7
 8004596:	7fa3      	ldrb	r3, [r4, #30]
 8004598:	fb06 7202 	mla	r2, r6, r2, r7
 800459c:	441a      	add	r2, r3
 800459e:	2102      	movs	r1, #2
 80045a0:	f7fd ff2d 	bl	80023fe <HAL_RTCEx_BKUPWrite>
 80045a4:	b017      	add	sp, #92	; 0x5c
 80045a6:	bdf0      	pop	{r4, r5, r6, r7, pc}
 80045a8:	f7fb ff92 	bl	80004d0 <HAL_GetTick>
 80045ac:	2864      	cmp	r0, #100	; 0x64
 80045ae:	d9b0      	bls.n	8004512 <_ZN11STM32L4_HAL10HAL_cyclicEv+0x12>
 80045b0:	4831      	ldr	r0, [pc, #196]	; (8004678 <_ZN11STM32L4_HAL10HAL_cyclicEv+0x178>)
 80045b2:	f7fc fb5f 	bl	8000c74 <HAL_ADC_Start>
 80045b6:	2302      	movs	r3, #2
 80045b8:	f885 3027 	strb.w	r3, [r5, #39]	; 0x27
 80045bc:	e7a9      	b.n	8004512 <_ZN11STM32L4_HAL10HAL_cyclicEv+0x12>
 80045be:	4e2e      	ldr	r6, [pc, #184]	; (8004678 <_ZN11STM32L4_HAL10HAL_cyclicEv+0x178>)
 80045c0:	2100      	movs	r1, #0
 80045c2:	4630      	mov	r0, r6
 80045c4:	f7fc f89a 	bl	80006fc <HAL_ADC_PollForConversion>
 80045c8:	4630      	mov	r0, r6
 80045ca:	f7fc fab5 	bl	8000b38 <HAL_ADC_GetState>
 80045ce:	0583      	lsls	r3, r0, #22
 80045d0:	d59f      	bpl.n	8004512 <_ZN11STM32L4_HAL10HAL_cyclicEv+0x12>
 80045d2:	4630      	mov	r0, r6
 80045d4:	f7fc f8e0 	bl	8000798 <HAL_ADC_GetValue>
 80045d8:	4604      	mov	r4, r0
 80045da:	4630      	mov	r0, r6
 80045dc:	f7fc fb8b 	bl	8000cf6 <ADC_Disable>
 80045e0:	4630      	mov	r0, r6
 80045e2:	f7fc fc6a 	bl	8000eba <HAL_ADCEx_DisableVoltageRegulator>
 80045e6:	6832      	ldr	r2, [r6, #0]
 80045e8:	6893      	ldr	r3, [r2, #8]
 80045ea:	f023 4320 	bic.w	r3, r3, #2684354560	; 0xa0000000
 80045ee:	f023 033f 	bic.w	r3, r3, #63	; 0x3f
 80045f2:	f043 5300 	orr.w	r3, r3, #536870912	; 0x20000000
 80045f6:	6093      	str	r3, [r2, #8]
 80045f8:	2100      	movs	r1, #0
 80045fa:	2250      	movs	r2, #80	; 0x50
 80045fc:	a802      	add	r0, sp, #8
 80045fe:	f000 fd3d 	bl	800507c <memset>
 8004602:	a816      	add	r0, sp, #88	; 0x58
 8004604:	f44f 4380 	mov.w	r3, #16384	; 0x4000
 8004608:	f840 3d54 	str.w	r3, [r0, #-84]!
 800460c:	f7fd fae8 	bl	8001be0 <HAL_RCCEx_PeriphCLKConfig>
 8004610:	b108      	cbz	r0, 8004616 <_ZN11STM32L4_HAL10HAL_cyclicEv+0x116>
 8004612:	f7fb fe3f 	bl	8000294 <Error_Handler>
 8004616:	4b19      	ldr	r3, [pc, #100]	; (800467c <_ZN11STM32L4_HAL10HAL_cyclicEv+0x17c>)
 8004618:	881b      	ldrh	r3, [r3, #0]
 800461a:	f640 30b8 	movw	r0, #3000	; 0xbb8
 800461e:	4358      	muls	r0, r3
 8004620:	f640 73ff 	movw	r3, #4095	; 0xfff
 8004624:	fbb0 f0f3 	udiv	r0, r0, r3
 8004628:	2303      	movs	r3, #3
 800462a:	ebc0 2080 	rsb	r0, r0, r0, lsl #10
 800462e:	fbb0 f0f4 	udiv	r0, r0, r4
 8004632:	84a8      	strh	r0, [r5, #36]	; 0x24
 8004634:	e7c0      	b.n	80045b8 <_ZN11STM32L4_HAL10HAL_cyclicEv+0xb8>
 8004636:	2102      	movs	r1, #2
 8004638:	480d      	ldr	r0, [pc, #52]	; (8004670 <_ZN11STM32L4_HAL10HAL_cyclicEv+0x170>)
 800463a:	f7fd feec 	bl	8002416 <HAL_RTCEx_BKUPRead>
 800463e:	7f63      	ldrb	r3, [r4, #29]
 8004640:	7fe2      	ldrb	r2, [r4, #31]
 8004642:	fb13 f707 	smulbb	r7, r3, r7
 8004646:	7fa3      	ldrb	r3, [r4, #30]
 8004648:	fb06 7202 	mla	r2, r6, r2, r7
 800464c:	441a      	add	r2, r3
 800464e:	4290      	cmp	r0, r2
 8004650:	d9a8      	bls.n	80045a4 <_ZN11STM32L4_HAL10HAL_cyclicEv+0xa4>
 8004652:	2102      	movs	r1, #2
 8004654:	4806      	ldr	r0, [pc, #24]	; (8004670 <_ZN11STM32L4_HAL10HAL_cyclicEv+0x170>)
 8004656:	f7fd fede 	bl	8002416 <HAL_RTCEx_BKUPRead>
 800465a:	2108      	movs	r1, #8
 800465c:	b2c2      	uxtb	r2, r0
 800465e:	4628      	mov	r0, r5
 8004660:	f7ff fcec 	bl	800403c <_ZN11STM32L4_HAL9showERROREhh>
 8004664:	e79e      	b.n	80045a4 <_ZN11STM32L4_HAL10HAL_cyclicEv+0xa4>
 8004666:	bf00      	nop
 8004668:	2000009c 	.word	0x2000009c
 800466c:	080053a0 	.word	0x080053a0
 8004670:	200003c0 	.word	0x200003c0
 8004674:	2000000c 	.word	0x2000000c
 8004678:	2000035c 	.word	0x2000035c
 800467c:	1fff75aa 	.word	0x1fff75aa

08004680 <_ZN11STM32L4_HAL21setAxisMappingVariantE12Watch_Type_t>:
 8004680:	7201      	strb	r1, [r0, #8]
 8004682:	4770      	bx	lr

08004684 <_ZN11STM32L4_HAL26writeDataToBackupRegistersEv>:
 8004684:	b570      	push	{r4, r5, r6, lr}
 8004686:	4604      	mov	r4, r0
 8004688:	2201      	movs	r2, #1
 800468a:	2100      	movs	r1, #0
 800468c:	480a      	ldr	r0, [pc, #40]	; (80046b8 <_ZN11STM32L4_HAL26writeDataToBackupRegistersEv+0x34>)
 800468e:	4e0a      	ldr	r6, [pc, #40]	; (80046b8 <_ZN11STM32L4_HAL26writeDataToBackupRegistersEv+0x34>)
 8004690:	f7fd feb5 	bl	80023fe <HAL_RTCEx_BKUPWrite>
 8004694:	68e2      	ldr	r2, [r4, #12]
 8004696:	4808      	ldr	r0, [pc, #32]	; (80046b8 <_ZN11STM32L4_HAL26writeDataToBackupRegistersEv+0x34>)
 8004698:	2101      	movs	r1, #1
 800469a:	f7fd feb0 	bl	80023fe <HAL_RTCEx_BKUPWrite>
 800469e:	3414      	adds	r4, #20
 80046a0:	2504      	movs	r5, #4
 80046a2:	4629      	mov	r1, r5
 80046a4:	f834 2b02 	ldrh.w	r2, [r4], #2
 80046a8:	4630      	mov	r0, r6
 80046aa:	3501      	adds	r5, #1
 80046ac:	f7fd fea7 	bl	80023fe <HAL_RTCEx_BKUPWrite>
 80046b0:	2d0c      	cmp	r5, #12
 80046b2:	d1f6      	bne.n	80046a2 <_ZN11STM32L4_HAL26writeDataToBackupRegistersEv+0x1e>
 80046b4:	bd70      	pop	{r4, r5, r6, pc}
 80046b6:	bf00      	nop
 80046b8:	200003c0 	.word	0x200003c0

080046bc <_Z23GPIO_AnalogState_Configv>:
 80046bc:	b530      	push	{r4, r5, lr}
 80046be:	4c21      	ldr	r4, [pc, #132]	; (8004744 <_Z23GPIO_AnalogState_Configv+0x88>)
 80046c0:	6ce3      	ldr	r3, [r4, #76]	; 0x4c
 80046c2:	f043 0301 	orr.w	r3, r3, #1
 80046c6:	64e3      	str	r3, [r4, #76]	; 0x4c
 80046c8:	6ce3      	ldr	r3, [r4, #76]	; 0x4c
 80046ca:	b089      	sub	sp, #36	; 0x24
 80046cc:	f003 0301 	and.w	r3, r3, #1
 80046d0:	9300      	str	r3, [sp, #0]
 80046d2:	9b00      	ldr	r3, [sp, #0]
 80046d4:	6ce3      	ldr	r3, [r4, #76]	; 0x4c
 80046d6:	f043 0302 	orr.w	r3, r3, #2
 80046da:	64e3      	str	r3, [r4, #76]	; 0x4c
 80046dc:	6ce3      	ldr	r3, [r4, #76]	; 0x4c
 80046de:	f003 0302 	and.w	r3, r3, #2
 80046e2:	9301      	str	r3, [sp, #4]
 80046e4:	9b01      	ldr	r3, [sp, #4]
 80046e6:	6ce3      	ldr	r3, [r4, #76]	; 0x4c
 80046e8:	f043 0380 	orr.w	r3, r3, #128	; 0x80
 80046ec:	64e3      	str	r3, [r4, #76]	; 0x4c
 80046ee:	6ce3      	ldr	r3, [r4, #76]	; 0x4c
 80046f0:	f003 0380 	and.w	r3, r3, #128	; 0x80
 80046f4:	9302      	str	r3, [sp, #8]
 80046f6:	9b02      	ldr	r3, [sp, #8]
 80046f8:	2303      	movs	r3, #3
 80046fa:	ad08      	add	r5, sp, #32
 80046fc:	9304      	str	r3, [sp, #16]
 80046fe:	9306      	str	r3, [sp, #24]
 8004700:	2300      	movs	r3, #0
 8004702:	9305      	str	r3, [sp, #20]
 8004704:	f64f 73ff 	movw	r3, #65535	; 0xffff
 8004708:	f845 3d14 	str.w	r3, [r5, #-20]!
 800470c:	f04f 4090 	mov.w	r0, #1207959552	; 0x48000000
 8004710:	4629      	mov	r1, r5
 8004712:	f7fc fc4b 	bl	8000fac <HAL_GPIO_Init>
 8004716:	4629      	mov	r1, r5
 8004718:	480b      	ldr	r0, [pc, #44]	; (8004748 <_Z23GPIO_AnalogState_Configv+0x8c>)
 800471a:	f7fc fc47 	bl	8000fac <HAL_GPIO_Init>
 800471e:	4629      	mov	r1, r5
 8004720:	480a      	ldr	r0, [pc, #40]	; (800474c <_Z23GPIO_AnalogState_Configv+0x90>)
 8004722:	f7fc fc43 	bl	8000fac <HAL_GPIO_Init>
 8004726:	6ce3      	ldr	r3, [r4, #76]	; 0x4c
 8004728:	f023 0301 	bic.w	r3, r3, #1
 800472c:	64e3      	str	r3, [r4, #76]	; 0x4c
 800472e:	6ce3      	ldr	r3, [r4, #76]	; 0x4c
 8004730:	f023 0302 	bic.w	r3, r3, #2
 8004734:	64e3      	str	r3, [r4, #76]	; 0x4c
 8004736:	6ce3      	ldr	r3, [r4, #76]	; 0x4c
 8004738:	f023 0380 	bic.w	r3, r3, #128	; 0x80
 800473c:	64e3      	str	r3, [r4, #76]	; 0x4c
 800473e:	b009      	add	sp, #36	; 0x24
 8004740:	bd30      	pop	{r4, r5, pc}
 8004742:	bf00      	nop
 8004744:	40021000 	.word	0x40021000
 8004748:	48000400 	.word	0x48000400
 800474c:	48001c00 	.word	0x48001c00

08004750 <_ZN11STM32L4_HAL9HAL_sleepEv>:
 8004750:	b510      	push	{r4, lr}
 8004752:	4604      	mov	r4, r0
 8004754:	b672      	cpsid	i
 8004756:	b671      	cpsid	f
 8004758:	2140      	movs	r1, #64	; 0x40
 800475a:	2001      	movs	r0, #1
 800475c:	f7fc fd4c 	bl	80011f8 <HAL_PWREx_EnableGPIOPullUp>
 8004760:	2108      	movs	r1, #8
 8004762:	2001      	movs	r0, #1
 8004764:	f7fc fd82 	bl	800126c <HAL_PWREx_EnableGPIOPullDown>
 8004768:	2110      	movs	r1, #16
 800476a:	2001      	movs	r0, #1
 800476c:	f7fc fd7e 	bl	800126c <HAL_PWREx_EnableGPIOPullDown>
 8004770:	2120      	movs	r1, #32
 8004772:	2001      	movs	r0, #1
 8004774:	f7fc fd7a 	bl	800126c <HAL_PWREx_EnableGPIOPullDown>
 8004778:	2101      	movs	r1, #1
 800477a:	2000      	movs	r0, #0
 800477c:	f7fc fd76 	bl	800126c <HAL_PWREx_EnableGPIOPullDown>
 8004780:	2110      	movs	r1, #16
 8004782:	2000      	movs	r0, #0
 8004784:	f7fc fd72 	bl	800126c <HAL_PWREx_EnableGPIOPullDown>
 8004788:	2108      	movs	r1, #8
 800478a:	2000      	movs	r0, #0
 800478c:	f7fc fd6e 	bl	800126c <HAL_PWREx_EnableGPIOPullDown>
 8004790:	f44f 5180 	mov.w	r1, #4096	; 0x1000
 8004794:	2000      	movs	r0, #0
 8004796:	f7fc fd69 	bl	800126c <HAL_PWREx_EnableGPIOPullDown>
 800479a:	f44f 6100 	mov.w	r1, #2048	; 0x800
 800479e:	2000      	movs	r0, #0
 80047a0:	f7fc fd64 	bl	800126c <HAL_PWREx_EnableGPIOPullDown>
 80047a4:	2120      	movs	r1, #32
 80047a6:	2000      	movs	r0, #0
 80047a8:	f7fc fd60 	bl	800126c <HAL_PWREx_EnableGPIOPullDown>
 80047ac:	2140      	movs	r1, #64	; 0x40
 80047ae:	2000      	movs	r0, #0
 80047b0:	f7fc fd5c 	bl	800126c <HAL_PWREx_EnableGPIOPullDown>
 80047b4:	f44f 6180 	mov.w	r1, #1024	; 0x400
 80047b8:	2000      	movs	r0, #0
 80047ba:	f7fc fd57 	bl	800126c <HAL_PWREx_EnableGPIOPullDown>
 80047be:	f44f 7100 	mov.w	r1, #512	; 0x200
 80047c2:	2000      	movs	r0, #0
 80047c4:	f7fc fd52 	bl	800126c <HAL_PWREx_EnableGPIOPullDown>
 80047c8:	f44f 5100 	mov.w	r1, #8192	; 0x2000
 80047cc:	2000      	movs	r0, #0
 80047ce:	f7fc fd4d 	bl	800126c <HAL_PWREx_EnableGPIOPullDown>
 80047d2:	f44f 4180 	mov.w	r1, #16384	; 0x4000
 80047d6:	2000      	movs	r0, #0
 80047d8:	f7fc fd48 	bl	800126c <HAL_PWREx_EnableGPIOPullDown>
 80047dc:	2108      	movs	r1, #8
 80047de:	2007      	movs	r0, #7
 80047e0:	f7fc fd44 	bl	800126c <HAL_PWREx_EnableGPIOPullDown>
 80047e4:	f7fc fd7c 	bl	80012e0 <HAL_PWREx_EnablePullUpPullDownConfig>
 80047e8:	f7fb fe94 	bl	8000514 <HAL_DBGMCU_DisableDBGStopMode>
 80047ec:	f7fb fe9a 	bl	8000524 <HAL_DBGMCU_DisableDBGStandbyMode>
 80047f0:	f7fb fe88 	bl	8000504 <HAL_DBGMCU_DisableDBGSleepMode>
 80047f4:	4620      	mov	r0, r4
 80047f6:	f7ff ff45 	bl	8004684 <_ZN11STM32L4_HAL26writeDataToBackupRegistersEv>
 80047fa:	6823      	ldr	r3, [r4, #0]
 80047fc:	4620      	mov	r0, r4
 80047fe:	69db      	ldr	r3, [r3, #28]
 8004800:	4798      	blx	r3
 8004802:	f7ff ff5b 	bl	80046bc <_Z23GPIO_AnalogState_Configv>
 8004806:	4b03      	ldr	r3, [pc, #12]	; (8004814 <_ZN11STM32L4_HAL9HAL_sleepEv+0xc4>)
 8004808:	221f      	movs	r2, #31
 800480a:	619a      	str	r2, [r3, #24]
 800480c:	f7fc fd78 	bl	8001300 <HAL_PWREx_EnterSHUTDOWNMode>
 8004810:	2000      	movs	r0, #0
 8004812:	bd10      	pop	{r4, pc}
 8004814:	40007000 	.word	0x40007000

08004818 <_GLOBAL__sub_I_bma>:
 8004818:	4b09      	ldr	r3, [pc, #36]	; (8004840 <_GLOBAL__sub_I_bma+0x28>)
 800481a:	681a      	ldr	r2, [r3, #0]
 800481c:	f64f 73ff 	movw	r3, #65535	; 0xffff
 8004820:	b291      	uxth	r1, r2
 8004822:	4299      	cmp	r1, r3
 8004824:	bf17      	itett	ne
 8004826:	4b07      	ldrne	r3, [pc, #28]	; (8004844 <_GLOBAL__sub_I_bma+0x2c>)
 8004828:	4b07      	ldreq	r3, [pc, #28]	; (8004848 <_GLOBAL__sub_I_bma+0x30>)
 800482a:	ea03 2382 	andne.w	r3, r3, r2, lsl #10
 800482e:	f103 63ff 	addne.w	r3, r3, #133693440	; 0x7f80000
 8004832:	4a06      	ldr	r2, [pc, #24]	; (800484c <_GLOBAL__sub_I_bma+0x34>)
 8004834:	bf18      	it	ne
 8004836:	f503 23ff 	addne.w	r3, r3, #522240	; 0x7f800
 800483a:	6013      	str	r3, [r2, #0]
 800483c:	4770      	bx	lr
 800483e:	bf00      	nop
 8004840:	1fff75e0 	.word	0x1fff75e0
 8004844:	03fffc00 	.word	0x03fffc00
 8004848:	0803f800 	.word	0x0803f800
 800484c:	200000c8 	.word	0x200000c8

08004850 <_ZN6SleepM6cyclicEv>:
 8004850:	b570      	push	{r4, r5, r6, lr}
 8004852:	4604      	mov	r4, r0
 8004854:	f7fb fe3c 	bl	80004d0 <HAL_GetTick>
 8004858:	f44f 737a 	mov.w	r3, #1000	; 0x3e8
 800485c:	fbb0 f0f3 	udiv	r0, r0, r3
 8004860:	68a3      	ldr	r3, [r4, #8]
 8004862:	4283      	cmp	r3, r0
 8004864:	d214      	bcs.n	8004890 <_ZN6SleepM6cyclicEv+0x40>
 8004866:	2300      	movs	r3, #0
 8004868:	7b22      	ldrb	r2, [r4, #12]
 800486a:	1c5d      	adds	r5, r3, #1
 800486c:	b2db      	uxtb	r3, r3
 800486e:	429a      	cmp	r2, r3
 8004870:	d907      	bls.n	8004882 <_ZN6SleepM6cyclicEv+0x32>
 8004872:	3304      	adds	r3, #4
 8004874:	f854 0023 	ldr.w	r0, [r4, r3, lsl #2]
 8004878:	6803      	ldr	r3, [r0, #0]
 800487a:	681b      	ldr	r3, [r3, #0]
 800487c:	4798      	blx	r3
 800487e:	462b      	mov	r3, r5
 8004880:	e7f2      	b.n	8004868 <_ZN6SleepM6cyclicEv+0x18>
 8004882:	6820      	ldr	r0, [r4, #0]
 8004884:	b120      	cbz	r0, 8004890 <_ZN6SleepM6cyclicEv+0x40>
 8004886:	6803      	ldr	r3, [r0, #0]
 8004888:	e8bd 4070 	ldmia.w	sp!, {r4, r5, r6, lr}
 800488c:	689b      	ldr	r3, [r3, #8]
 800488e:	4718      	bx	r3
 8004890:	bd70      	pop	{r4, r5, r6, pc}

08004892 <_ZN6SleepM7prolongEh>:
 8004892:	b538      	push	{r3, r4, r5, lr}
 8004894:	4604      	mov	r4, r0
 8004896:	460d      	mov	r5, r1
 8004898:	f7fb fe1a 	bl	80004d0 <HAL_GetTick>
 800489c:	f44f 737a 	mov.w	r3, #1000	; 0x3e8
 80048a0:	fbb0 f0f3 	udiv	r0, r0, r3
 80048a4:	4428      	add	r0, r5
 80048a6:	60a0      	str	r0, [r4, #8]
 80048a8:	bd38      	pop	{r3, r4, r5, pc}
	...

080048ac <_GLOBAL__sub_I_sm>:
 80048ac:	b510      	push	{r4, lr}
 80048ae:	4c08      	ldr	r4, [pc, #32]	; (80048d0 <_GLOBAL__sub_I_sm+0x24>)
 80048b0:	2300      	movs	r3, #0
 80048b2:	2205      	movs	r2, #5
 80048b4:	e9c4 3201 	strd	r3, r2, [r4, #4]
 80048b8:	7323      	strb	r3, [r4, #12]
 80048ba:	f7fb fe09 	bl	80004d0 <HAL_GetTick>
 80048be:	f44f 737a 	mov.w	r3, #1000	; 0x3e8
 80048c2:	fbb0 f0f3 	udiv	r0, r0, r3
 80048c6:	6060      	str	r0, [r4, #4]
 80048c8:	3005      	adds	r0, #5
 80048ca:	60a0      	str	r0, [r4, #8]
 80048cc:	bd10      	pop	{r4, pc}
 80048ce:	bf00      	nop
 80048d0:	200000cc 	.word	0x200000cc

080048d4 <_Z8spi_initv>:
 80048d4:	f44f 737a 	mov.w	r3, #1000	; 0x3e8
 80048d8:	2201      	movs	r2, #1
 80048da:	4902      	ldr	r1, [pc, #8]	; (80048e4 <_Z8spi_initv+0x10>)
 80048dc:	4802      	ldr	r0, [pc, #8]	; (80048e8 <_Z8spi_initv+0x14>)
 80048de:	f7fd beee 	b.w	80026be <HAL_SPI_Transmit>
 80048e2:	bf00      	nop
 80048e4:	200000f0 	.word	0x200000f0
 80048e8:	200003e4 	.word	0x200003e4

080048ec <_Z9spi_writePhhPFvS_E>:
 80048ec:	460a      	mov	r2, r1
 80048ee:	f44f 737a 	mov.w	r3, #1000	; 0x3e8
 80048f2:	4601      	mov	r1, r0
 80048f4:	4801      	ldr	r0, [pc, #4]	; (80048fc <_Z9spi_writePhhPFvS_E+0x10>)
 80048f6:	f7fd bee2 	b.w	80026be <HAL_SPI_Transmit>
 80048fa:	bf00      	nop
 80048fc:	200003e4 	.word	0x200003e4

08004900 <_Z8spi_readhPFvPhE>:
 8004900:	b570      	push	{r4, r5, r6, lr}
 8004902:	4c07      	ldr	r4, [pc, #28]	; (8004920 <_Z8spi_readhPFvPhE+0x20>)
 8004904:	460d      	mov	r5, r1
 8004906:	f44f 737a 	mov.w	r3, #1000	; 0x3e8
 800490a:	4602      	mov	r2, r0
 800490c:	4621      	mov	r1, r4
 800490e:	4805      	ldr	r0, [pc, #20]	; (8004924 <_Z8spi_readhPFvPhE+0x24>)
 8004910:	f7fe f8b3 	bl	8002a7a <HAL_SPI_Receive>
 8004914:	4620      	mov	r0, r4
 8004916:	462b      	mov	r3, r5
 8004918:	e8bd 4070 	ldmia.w	sp!, {r4, r5, r6, lr}
 800491c:	4718      	bx	r3
 800491e:	bf00      	nop
 8004920:	200000f0 	.word	0x200000f0
 8004924:	200003e4 	.word	0x200003e4

08004928 <_Z8spi_waitv>:
 8004928:	4800      	ldr	r0, [pc, #0]	; (800492c <_Z8spi_waitv+0x4>)
 800492a:	4770      	bx	lr
 800492c:	200000f0 	.word	0x200000f0

08004930 <RTC_Event_Callback>:
 8004930:	b510      	push	{r4, lr}
 8004932:	4c08      	ldr	r4, [pc, #32]	; (8004954 <RTC_Event_Callback+0x24>)
 8004934:	4620      	mov	r0, r4
 8004936:	f7ff fca7 	bl	8004288 <_ZN11STM32L4_HAL11updateStepsEv>
 800493a:	4620      	mov	r0, r4
 800493c:	f7ff fb44 	bl	8003fc8 <_ZN11STM32L4_HAL8getStepsEv>
 8004940:	b281      	uxth	r1, r0
 8004942:	4620      	mov	r0, r4
 8004944:	f7ff fcb0 	bl	80042a8 <_ZN11STM32L4_HAL12pushNewStepsEt>
 8004948:	4620      	mov	r0, r4
 800494a:	e8bd 4010 	ldmia.w	sp!, {r4, lr}
 800494e:	f7ff bdc3 	b.w	80044d8 <_ZN11STM32L4_HAL10resetStepsEv>
 8004952:	bf00      	nop
 8004954:	20000224 	.word	0x20000224

08004958 <_Z14DWT_Delay_Initv>:
 8004958:	4b17      	ldr	r3, [pc, #92]	; (80049b8 <_Z14DWT_Delay_Initv+0x60>)
 800495a:	68da      	ldr	r2, [r3, #12]
 800495c:	f022 7280 	bic.w	r2, r2, #16777216	; 0x1000000
 8004960:	60da      	str	r2, [r3, #12]
 8004962:	68da      	ldr	r2, [r3, #12]
 8004964:	f042 7280 	orr.w	r2, r2, #16777216	; 0x1000000
 8004968:	60da      	str	r2, [r3, #12]
 800496a:	4b14      	ldr	r3, [pc, #80]	; (80049bc <_Z14DWT_Delay_Initv+0x64>)
 800496c:	681a      	ldr	r2, [r3, #0]
 800496e:	f022 0201 	bic.w	r2, r2, #1
 8004972:	601a      	str	r2, [r3, #0]
 8004974:	681a      	ldr	r2, [r3, #0]
 8004976:	f042 0201 	orr.w	r2, r2, #1
 800497a:	601a      	str	r2, [r3, #0]
 800497c:	2200      	movs	r2, #0
 800497e:	b082      	sub	sp, #8
 8004980:	605a      	str	r2, [r3, #4]
 8004982:	bf00      	nop
 8004984:	bf00      	nop
 8004986:	bf00      	nop
 8004988:	f89d 2007 	ldrb.w	r2, [sp, #7]
 800498c:	3201      	adds	r2, #1
 800498e:	b2d2      	uxtb	r2, r2
 8004990:	f88d 2007 	strb.w	r2, [sp, #7]
 8004994:	f89d 2007 	ldrb.w	r2, [sp, #7]
 8004998:	3201      	adds	r2, #1
 800499a:	b2d2      	uxtb	r2, r2
 800499c:	f88d 2007 	strb.w	r2, [sp, #7]
 80049a0:	f89d 2007 	ldrb.w	r2, [sp, #7]
 80049a4:	3201      	adds	r2, #1
 80049a6:	b2d2      	uxtb	r2, r2
 80049a8:	f88d 2007 	strb.w	r2, [sp, #7]
 80049ac:	6858      	ldr	r0, [r3, #4]
 80049ae:	fab0 f080 	clz	r0, r0
 80049b2:	0940      	lsrs	r0, r0, #5
 80049b4:	b002      	add	sp, #8
 80049b6:	4770      	bx	lr
 80049b8:	e000edf0 	.word	0xe000edf0
 80049bc:	e0001000 	.word	0xe0001000

080049c0 <_Z30SystemClock_Config_without_LSEv>:
 80049c0:	b500      	push	{lr}
 80049c2:	b0ad      	sub	sp, #180	; 0xb4
 80049c4:	2240      	movs	r2, #64	; 0x40
 80049c6:	2100      	movs	r1, #0
 80049c8:	a807      	add	r0, sp, #28
 80049ca:	f000 fb57 	bl	800507c <memset>
 80049ce:	2214      	movs	r2, #20
 80049d0:	2100      	movs	r1, #0
 80049d2:	a801      	add	r0, sp, #4
 80049d4:	f000 fb52 	bl	800507c <memset>
 80049d8:	2254      	movs	r2, #84	; 0x54
 80049da:	2100      	movs	r1, #0
 80049dc:	a817      	add	r0, sp, #92	; 0x5c
 80049de:	f000 fb4d 	bl	800507c <memset>
 80049e2:	2310      	movs	r3, #16
 80049e4:	9306      	str	r3, [sp, #24]
 80049e6:	2301      	movs	r3, #1
 80049e8:	930c      	str	r3, [sp, #48]	; 0x30
 80049ea:	a806      	add	r0, sp, #24
 80049ec:	2350      	movs	r3, #80	; 0x50
 80049ee:	930e      	str	r3, [sp, #56]	; 0x38
 80049f0:	f7fc fd28 	bl	8001444 <HAL_RCC_OscConfig>
 80049f4:	b108      	cbz	r0, 80049fa <_Z30SystemClock_Config_without_LSEv+0x3a>
 80049f6:	f7fb fc4d 	bl	8000294 <Error_Handler>
 80049fa:	2100      	movs	r1, #0
 80049fc:	230f      	movs	r3, #15
 80049fe:	a801      	add	r0, sp, #4
 8004a00:	e9cd 3101 	strd	r3, r1, [sp, #4]
 8004a04:	e9cd 1103 	strd	r1, r1, [sp, #12]
 8004a08:	9105      	str	r1, [sp, #20]
 8004a0a:	f7fc ffc5 	bl	8001998 <HAL_RCC_ClockConfig>
 8004a0e:	b108      	cbz	r0, 8004a14 <_Z30SystemClock_Config_without_LSEv+0x54>
 8004a10:	f7fb fc40 	bl	8000294 <Error_Handler>
 8004a14:	f44f 4380 	mov.w	r3, #16384	; 0x4000
 8004a18:	9317      	str	r3, [sp, #92]	; 0x5c
 8004a1a:	a817      	add	r0, sp, #92	; 0x5c
 8004a1c:	f04f 5340 	mov.w	r3, #805306368	; 0x30000000
 8004a20:	9329      	str	r3, [sp, #164]	; 0xa4
 8004a22:	f7fd f8dd 	bl	8001be0 <HAL_RCCEx_PeriphCLKConfig>
 8004a26:	b108      	cbz	r0, 8004a2c <_Z30SystemClock_Config_without_LSEv+0x6c>
 8004a28:	f7fb fc34 	bl	8000294 <Error_Handler>
 8004a2c:	f44f 7000 	mov.w	r0, #512	; 0x200
 8004a30:	f7fc fbac 	bl	800118c <HAL_PWREx_ControlVoltageScaling>
 8004a34:	b108      	cbz	r0, 8004a3a <_Z30SystemClock_Config_without_LSEv+0x7a>
 8004a36:	f7fb fc2d 	bl	8000294 <Error_Handler>
 8004a3a:	b02d      	add	sp, #180	; 0xb4
 8004a3c:	f85d fb04 	ldr.w	pc, [sp], #4

08004a40 <usermain_init>:
 8004a40:	b538      	push	{r3, r4, r5, lr}
 8004a42:	f7ff ffbd 	bl	80049c0 <_Z30SystemClock_Config_without_LSEv>
 8004a46:	4b2d      	ldr	r3, [pc, #180]	; (8004afc <usermain_init+0xbc>)
 8004a48:	4d2d      	ldr	r5, [pc, #180]	; (8004b00 <usermain_init+0xc0>)
 8004a4a:	681a      	ldr	r2, [r3, #0]
 8004a4c:	f64f 73ff 	movw	r3, #65535	; 0xffff
 8004a50:	b291      	uxth	r1, r2
 8004a52:	4299      	cmp	r1, r3
 8004a54:	bf17      	itett	ne
 8004a56:	4b2b      	ldrne	r3, [pc, #172]	; (8004b04 <usermain_init+0xc4>)
 8004a58:	4b2b      	ldreq	r3, [pc, #172]	; (8004b08 <usermain_init+0xc8>)
 8004a5a:	ea03 2382 	andne.w	r3, r3, r2, lsl #10
 8004a5e:	f103 6300 	addne.w	r3, r3, #134217728	; 0x8000000
 8004a62:	bf18      	it	ne
 8004a64:	f5a3 63fe 	subne.w	r3, r3, #2032	; 0x7f0
 8004a68:	881a      	ldrh	r2, [r3, #0]
 8004a6a:	2300      	movs	r3, #0
 8004a6c:	2b00      	cmp	r3, #0
 8004a6e:	bf08      	it	eq
 8004a70:	f5b2 7f80 	cmpeq.w	r2, #256	; 0x100
 8004a74:	d133      	bne.n	8004ade <usermain_init+0x9e>
 8004a76:	4b25      	ldr	r3, [pc, #148]	; (8004b0c <usermain_init+0xcc>)
 8004a78:	4a25      	ldr	r2, [pc, #148]	; (8004b10 <usermain_init+0xd0>)
 8004a7a:	615a      	str	r2, [r3, #20]
 8004a7c:	f7ff ff6c 	bl	8004958 <_Z14DWT_Delay_Initv>
 8004a80:	4b24      	ldr	r3, [pc, #144]	; (8004b14 <usermain_init+0xd4>)
 8004a82:	602b      	str	r3, [r5, #0]
 8004a84:	2101      	movs	r1, #1
 8004a86:	4c24      	ldr	r4, [pc, #144]	; (8004b18 <usermain_init+0xd8>)
 8004a88:	4620      	mov	r0, r4
 8004a8a:	f7ff fdf9 	bl	8004680 <_ZN11STM32L4_HAL21setAxisMappingVariantE12Watch_Type_t>
 8004a8e:	4620      	mov	r0, r4
 8004a90:	f7ff fb38 	bl	8004104 <_ZN11STM32L4_HAL14HAL_driverInitEv>
 8004a94:	6829      	ldr	r1, [r5, #0]
 8004a96:	4620      	mov	r0, r4
 8004a98:	f7ff fbf4 	bl	8004284 <_ZN11STM32L4_HAL17setDisplayManagerEP14DisplayManager>
 8004a9c:	6828      	ldr	r0, [r5, #0]
 8004a9e:	6803      	ldr	r3, [r0, #0]
 8004aa0:	68db      	ldr	r3, [r3, #12]
 8004aa2:	4798      	blx	r3
 8004aa4:	4620      	mov	r0, r4
 8004aa6:	f7ff fc0d 	bl	80042c4 <_ZN11STM32L4_HAL8HAL_initEv>
 8004aaa:	6828      	ldr	r0, [r5, #0]
 8004aac:	6803      	ldr	r3, [r0, #0]
 8004aae:	691b      	ldr	r3, [r3, #16]
 8004ab0:	4798      	blx	r3
 8004ab2:	4620      	mov	r0, r4
 8004ab4:	f7ff fd24 	bl	8004500 <_ZN11STM32L4_HAL10HAL_cyclicEv>
 8004ab8:	4623      	mov	r3, r4
 8004aba:	4622      	mov	r2, r4
 8004abc:	6829      	ldr	r1, [r5, #0]
 8004abe:	4813      	ldr	r0, [pc, #76]	; (8004b0c <usermain_init+0xcc>)
 8004ac0:	f7fe f967 	bl	8002d92 <_ZN8GForceUI4initEP14DisplayManagerP9GForceHALP3HAL>
 8004ac4:	4b15      	ldr	r3, [pc, #84]	; (8004b1c <usermain_init+0xdc>)
 8004ac6:	681b      	ldr	r3, [r3, #0]
 8004ac8:	4620      	mov	r0, r4
 8004aca:	601c      	str	r4, [r3, #0]
 8004acc:	f7ff fa7a 	bl	8003fc4 <_ZN11STM32L4_HAL19HAL_getWakeupReasonEv>
 8004ad0:	280f      	cmp	r0, #15
 8004ad2:	d812      	bhi.n	8004afa <usermain_init+0xba>
 8004ad4:	4620      	mov	r0, r4
 8004ad6:	e8bd 4038 	ldmia.w	sp!, {r3, r4, r5, lr}
 8004ada:	f7ff be39 	b.w	8004750 <_ZN11STM32L4_HAL9HAL_sleepEv>
 8004ade:	2b00      	cmp	r3, #0
 8004ae0:	bf08      	it	eq
 8004ae2:	f5b2 7f00 	cmpeq.w	r2, #512	; 0x200
 8004ae6:	d1c9      	bne.n	8004a7c <usermain_init+0x3c>
 8004ae8:	4b08      	ldr	r3, [pc, #32]	; (8004b0c <usermain_init+0xcc>)
 8004aea:	4a0d      	ldr	r2, [pc, #52]	; (8004b20 <usermain_init+0xe0>)
 8004aec:	615a      	str	r2, [r3, #20]
 8004aee:	f7ff ff33 	bl	8004958 <_Z14DWT_Delay_Initv>
 8004af2:	4b0c      	ldr	r3, [pc, #48]	; (8004b24 <usermain_init+0xe4>)
 8004af4:	602b      	str	r3, [r5, #0]
 8004af6:	2102      	movs	r1, #2
 8004af8:	e7c5      	b.n	8004a86 <usermain_init+0x46>
 8004afa:	bd38      	pop	{r3, r4, r5, pc}
 8004afc:	1fff75e0 	.word	0x1fff75e0
 8004b00:	20000200 	.word	0x20000200
 8004b04:	03fffc00 	.word	0x03fffc00
 8004b08:	0803f810 	.word	0x0803f810
 8004b0c:	20000204 	.word	0x20000204
 8004b10:	20000064 	.word	0x20000064
 8004b14:	200001c0 	.word	0x200001c0
 8004b18:	20000224 	.word	0x20000224
 8004b1c:	20000058 	.word	0x20000058
 8004b20:	2000005c 	.word	0x2000005c
 8004b24:	20000180 	.word	0x20000180

08004b28 <usermain_loop>:
 8004b28:	b510      	push	{r4, lr}
 8004b2a:	4808      	ldr	r0, [pc, #32]	; (8004b4c <usermain_loop+0x24>)
 8004b2c:	f7fe fbfc 	bl	8003328 <_ZN8GForceUI6cyclicEv>
 8004b30:	4b07      	ldr	r3, [pc, #28]	; (8004b50 <usermain_loop+0x28>)
 8004b32:	6818      	ldr	r0, [r3, #0]
 8004b34:	f7ff fe8c 	bl	8004850 <_ZN6SleepM6cyclicEv>
 8004b38:	4806      	ldr	r0, [pc, #24]	; (8004b54 <usermain_loop+0x2c>)
 8004b3a:	f7ff fce1 	bl	8004500 <_ZN11STM32L4_HAL10HAL_cyclicEv>
 8004b3e:	4b06      	ldr	r3, [pc, #24]	; (8004b58 <usermain_loop+0x30>)
 8004b40:	6818      	ldr	r0, [r3, #0]
 8004b42:	6803      	ldr	r3, [r0, #0]
 8004b44:	e8bd 4010 	ldmia.w	sp!, {r4, lr}
 8004b48:	685b      	ldr	r3, [r3, #4]
 8004b4a:	4718      	bx	r3
 8004b4c:	20000204 	.word	0x20000204
 8004b50:	20000058 	.word	0x20000058
 8004b54:	20000224 	.word	0x20000224
 8004b58:	20000200 	.word	0x20000200

08004b5c <_GLOBAL__sub_I_dman>:
 8004b5c:	b570      	push	{r4, r5, r6, lr}
 8004b5e:	4d1f      	ldr	r5, [pc, #124]	; (8004bdc <_GLOBAL__sub_I_dman+0x80>)
 8004b60:	4b1f      	ldr	r3, [pc, #124]	; (8004be0 <_GLOBAL__sub_I_dman+0x84>)
 8004b62:	602b      	str	r3, [r5, #0]
 8004b64:	2400      	movs	r4, #0
 8004b66:	23ee      	movs	r3, #238	; 0xee
 8004b68:	2601      	movs	r6, #1
 8004b6a:	726b      	strb	r3, [r5, #9]
 8004b6c:	2210      	movs	r2, #16
 8004b6e:	f44f 737a 	mov.w	r3, #1000	; 0x3e8
 8004b72:	4621      	mov	r1, r4
 8004b74:	f105 0014 	add.w	r0, r5, #20
 8004b78:	816b      	strh	r3, [r5, #10]
 8004b7a:	606c      	str	r4, [r5, #4]
 8004b7c:	722e      	strb	r6, [r5, #8]
 8004b7e:	e9c5 4403 	strd	r4, r4, [r5, #12]
 8004b82:	f000 fa7b 	bl	800507c <memset>
 8004b86:	4b17      	ldr	r3, [pc, #92]	; (8004be4 <_GLOBAL__sub_I_dman+0x88>)
 8004b88:	4a17      	ldr	r2, [pc, #92]	; (8004be8 <_GLOBAL__sub_I_dman+0x8c>)
 8004b8a:	601a      	str	r2, [r3, #0]
 8004b8c:	21ff      	movs	r1, #255	; 0xff
 8004b8e:	3224      	adds	r2, #36	; 0x24
 8004b90:	741c      	strb	r4, [r3, #16]
 8004b92:	635a      	str	r2, [r3, #52]	; 0x34
 8004b94:	e9c3 4408 	strd	r4, r4, [r3, #32]
 8004b98:	629c      	str	r4, [r3, #40]	; 0x28
 8004b9a:	f883 1030 	strb.w	r1, [r3, #48]	; 0x30
 8004b9e:	4a13      	ldr	r2, [pc, #76]	; (8004bec <_GLOBAL__sub_I_dman+0x90>)
 8004ba0:	4b13      	ldr	r3, [pc, #76]	; (8004bf0 <_GLOBAL__sub_I_dman+0x94>)
 8004ba2:	f885 4026 	strb.w	r4, [r5, #38]	; 0x26
 8004ba6:	601a      	str	r2, [r3, #0]
 8004ba8:	3224      	adds	r2, #36	; 0x24
 8004baa:	741c      	strb	r4, [r3, #16]
 8004bac:	635a      	str	r2, [r3, #52]	; 0x34
 8004bae:	e9c3 4408 	strd	r4, r4, [r3, #32]
 8004bb2:	4a10      	ldr	r2, [pc, #64]	; (8004bf4 <_GLOBAL__sub_I_dman+0x98>)
 8004bb4:	629c      	str	r4, [r3, #40]	; 0x28
 8004bb6:	f883 1030 	strb.w	r1, [r3, #48]	; 0x30
 8004bba:	4b0f      	ldr	r3, [pc, #60]	; (8004bf8 <_GLOBAL__sub_I_dman+0x9c>)
 8004bbc:	f885 4027 	strb.w	r4, [r5, #39]	; 0x27
 8004bc0:	601a      	str	r2, [r3, #0]
 8004bc2:	321c      	adds	r2, #28
 8004bc4:	e9c3 2401 	strd	r2, r4, [r3, #4]
 8004bc8:	835c      	strh	r4, [r3, #26]
 8004bca:	4a0c      	ldr	r2, [pc, #48]	; (8004bfc <_GLOBAL__sub_I_dman+0xa0>)
 8004bcc:	839c      	strh	r4, [r3, #28]
 8004bce:	e9c3 4403 	strd	r4, r4, [r3, #12]
 8004bd2:	615a      	str	r2, [r3, #20]
 8004bd4:	761e      	strb	r6, [r3, #24]
 8004bd6:	765c      	strb	r4, [r3, #25]
 8004bd8:	bd70      	pop	{r4, r5, r6, pc}
 8004bda:	bf00      	nop
 8004bdc:	20000224 	.word	0x20000224
 8004be0:	080053c0 	.word	0x080053c0
 8004be4:	200001c0 	.word	0x200001c0
 8004be8:	08005378 	.word	0x08005378
 8004bec:	08005318 	.word	0x08005318
 8004bf0:	20000180 	.word	0x20000180
 8004bf4:	080050f8 	.word	0x080050f8
 8004bf8:	20000204 	.word	0x20000204
 8004bfc:	2000006c 	.word	0x2000006c

08004c00 <_Z15writeConfigFilev>:
 8004c00:	b570      	push	{r4, r5, r6, lr}
 8004c02:	b0a6      	sub	sp, #152	; 0x98
 8004c04:	f10d 060f 	add.w	r6, sp, #15
 8004c08:	f026 060f 	bic.w	r6, r6, #15
 8004c0c:	2282      	movs	r2, #130	; 0x82
 8004c0e:	2100      	movs	r1, #0
 8004c10:	4630      	mov	r0, r6
 8004c12:	f000 fa33 	bl	800507c <memset>
 8004c16:	2100      	movs	r1, #0
 8004c18:	207c      	movs	r0, #124	; 0x7c
 8004c1a:	f000 f933 	bl	8004e84 <_Z8writeReghh>
 8004c1e:	200a      	movs	r0, #10
 8004c20:	f7fb fc5c 	bl	80004dc <HAL_Delay>
 8004c24:	2100      	movs	r1, #0
 8004c26:	2059      	movs	r0, #89	; 0x59
 8004c28:	f000 f92c 	bl	8004e84 <_Z8writeReghh>
 8004c2c:	2400      	movs	r4, #0
 8004c2e:	2500      	movs	r5, #0
 8004c30:	1960      	adds	r0, r4, r5
 8004c32:	b280      	uxth	r0, r0
 8004c34:	f000 f8fc 	bl	8004e30 <_Z22get_bma456_config_filet>
 8004c38:	5570      	strb	r0, [r6, r5]
 8004c3a:	3501      	adds	r5, #1
 8004c3c:	2d80      	cmp	r5, #128	; 0x80
 8004c3e:	d1f7      	bne.n	8004c30 <_Z15writeConfigFilev+0x30>
 8004c40:	4621      	mov	r1, r4
 8004c42:	3480      	adds	r4, #128	; 0x80
 8004c44:	462a      	mov	r2, r5
 8004c46:	4630      	mov	r0, r6
 8004c48:	b2a4      	uxth	r4, r4
 8004c4a:	f000 f9c5 	bl	8004fd8 <_Z12stream_writePhth>
 8004c4e:	f5b4 5fc0 	cmp.w	r4, #6144	; 0x1800
 8004c52:	d1ec      	bne.n	8004c2e <_Z15writeConfigFilev+0x2e>
 8004c54:	2101      	movs	r1, #1
 8004c56:	2059      	movs	r0, #89	; 0x59
 8004c58:	f000 f914 	bl	8004e84 <_Z8writeReghh>
 8004c5c:	2096      	movs	r0, #150	; 0x96
 8004c5e:	f7fb fc3d 	bl	80004dc <HAL_Delay>
 8004c62:	2101      	movs	r1, #1
 8004c64:	202a      	movs	r0, #42	; 0x2a
 8004c66:	f000 f955 	bl	8004f14 <_Z7readReghh>
 8004c6a:	2101      	movs	r1, #1
 8004c6c:	4604      	mov	r4, r0
 8004c6e:	207c      	movs	r0, #124	; 0x7c
 8004c70:	f000 f908 	bl	8004e84 <_Z8writeReghh>
 8004c74:	4620      	mov	r0, r4
 8004c76:	b026      	add	sp, #152	; 0x98
 8004c78:	bd70      	pop	{r4, r5, r6, pc}

08004c7a <_ZN9Bosch_BMA12writeAddressEhh>:
 8004c7a:	4608      	mov	r0, r1
 8004c7c:	4611      	mov	r1, r2
 8004c7e:	f000 b901 	b.w	8004e84 <_Z8writeReghh>

08004c82 <_ZN9Bosch_BMA11readAddressEh>:
 8004c82:	4608      	mov	r0, r1
 8004c84:	2101      	movs	r1, #1
 8004c86:	f000 b945 	b.w	8004f14 <_Z7readReghh>

08004c8a <_ZN9Bosch_BMA9getChipIDEv>:
 8004c8a:	2101      	movs	r1, #1
 8004c8c:	2000      	movs	r0, #0
 8004c8e:	f000 b941 	b.w	8004f14 <_Z7readReghh>

08004c92 <_ZN9Bosch_BMA4initEv>:
 8004c92:	b510      	push	{r4, lr}
 8004c94:	4604      	mov	r4, r0
 8004c96:	f000 f9b5 	bl	8005004 <_Z13initComDriverv>
 8004c9a:	21b6      	movs	r1, #182	; 0xb6
 8004c9c:	207e      	movs	r0, #126	; 0x7e
 8004c9e:	f000 f8f1 	bl	8004e84 <_Z8writeReghh>
 8004ca2:	f44f 70fa 	mov.w	r0, #500	; 0x1f4
 8004ca6:	f7fb fc19 	bl	80004dc <HAL_Delay>
 8004caa:	f000 f9ab 	bl	8005004 <_Z13initComDriverv>
 8004cae:	4620      	mov	r0, r4
 8004cb0:	f7ff ffeb 	bl	8004c8a <_ZN9Bosch_BMA9getChipIDEv>
 8004cb4:	4620      	mov	r0, r4
 8004cb6:	f7ff ffe8 	bl	8004c8a <_ZN9Bosch_BMA9getChipIDEv>
 8004cba:	4620      	mov	r0, r4
 8004cbc:	f7ff ffe5 	bl	8004c8a <_ZN9Bosch_BMA9getChipIDEv>
 8004cc0:	f7ff ff9e 	bl	8004c00 <_Z15writeConfigFilev>
 8004cc4:	f884 0049 	strb.w	r0, [r4, #73]	; 0x49
 8004cc8:	4620      	mov	r0, r4
 8004cca:	f7ff ffde 	bl	8004c8a <_ZN9Bosch_BMA9getChipIDEv>
 8004cce:	21ac      	movs	r1, #172	; 0xac
 8004cd0:	2040      	movs	r0, #64	; 0x40
 8004cd2:	f000 f8d7 	bl	8004e84 <_Z8writeReghh>
 8004cd6:	2101      	movs	r1, #1
 8004cd8:	2041      	movs	r0, #65	; 0x41
 8004cda:	f000 f8d3 	bl	8004e84 <_Z8writeReghh>
 8004cde:	2101      	movs	r1, #1
 8004ce0:	207d      	movs	r0, #125	; 0x7d
 8004ce2:	f000 f917 	bl	8004f14 <_Z7readReghh>
 8004ce6:	f040 0104 	orr.w	r1, r0, #4
 8004cea:	b2c9      	uxtb	r1, r1
 8004cec:	207d      	movs	r0, #125	; 0x7d
 8004cee:	f000 f8c9 	bl	8004e84 <_Z8writeReghh>
 8004cf2:	2100      	movs	r1, #0
 8004cf4:	207c      	movs	r0, #124	; 0x7c
 8004cf6:	e8bd 4010 	ldmia.w	sp!, {r4, lr}
 8004cfa:	f000 b8c3 	b.w	8004e84 <_Z8writeReghh>

08004cfe <_ZN9Bosch_BMA16getInternalStateEv>:
 8004cfe:	2101      	movs	r1, #1
 8004d00:	202a      	movs	r0, #42	; 0x2a
 8004d02:	f000 b907 	b.w	8004f14 <_Z7readReghh>

08004d06 <_ZN9Bosch_BMA14get_Accel_corrEh>:
 8004d06:	b513      	push	{r0, r1, r4, lr}
 8004d08:	3901      	subs	r1, #1
 8004d0a:	2403      	movs	r4, #3
 8004d0c:	fb91 f4f4 	sdiv	r4, r1, r4
 8004d10:	eb04 0444 	add.w	r4, r4, r4, lsl #1
 8004d14:	1b0c      	subs	r4, r1, r4
 8004d16:	0064      	lsls	r4, r4, #1
 8004d18:	b2e4      	uxtb	r4, r4
 8004d1a:	4404      	add	r4, r0
 8004d1c:	aa01      	add	r2, sp, #4
 8004d1e:	2102      	movs	r1, #2
 8004d20:	f894 0040 	ldrb.w	r0, [r4, #64]	; 0x40
 8004d24:	f000 f922 	bl	8004f6c <_Z8readRegshhPh>
 8004d28:	f89d 3005 	ldrb.w	r3, [sp, #5]
 8004d2c:	f89d 0004 	ldrb.w	r0, [sp, #4]
 8004d30:	f894 2041 	ldrb.w	r2, [r4, #65]	; 0x41
 8004d34:	ea40 2003 	orr.w	r0, r0, r3, lsl #8
 8004d38:	b102      	cbz	r2, 8004d3c <_ZN9Bosch_BMA14get_Accel_corrEh+0x36>
 8004d3a:	4240      	negs	r0, r0
 8004d3c:	b200      	sxth	r0, r0
 8004d3e:	b002      	add	sp, #8
 8004d40:	bd10      	pop	{r4, pc}

08004d42 <_ZN9Bosch_BMA16get_X_Accel_corrEv>:
 8004d42:	2101      	movs	r1, #1
 8004d44:	f7ff bfdf 	b.w	8004d06 <_ZN9Bosch_BMA14get_Accel_corrEh>

08004d48 <_ZN9Bosch_BMA16get_Y_Accel_corrEv>:
 8004d48:	2102      	movs	r1, #2
 8004d4a:	f7ff bfdc 	b.w	8004d06 <_ZN9Bosch_BMA14get_Accel_corrEh>

08004d4e <_ZN9Bosch_BMA16get_Z_Accel_corrEv>:
 8004d4e:	2103      	movs	r1, #3
 8004d50:	f7ff bfd9 	b.w	8004d06 <_ZN9Bosch_BMA14get_Accel_corrEh>

08004d54 <_ZN9Bosch_BMA8getStepsEv>:
 8004d54:	b507      	push	{r0, r1, r2, lr}
 8004d56:	2104      	movs	r1, #4
 8004d58:	aa01      	add	r2, sp, #4
 8004d5a:	201e      	movs	r0, #30
 8004d5c:	f000 f906 	bl	8004f6c <_Z8readRegshhPh>
 8004d60:	9801      	ldr	r0, [sp, #4]
 8004d62:	b003      	add	sp, #12
 8004d64:	f85d fb04 	ldr.w	pc, [sp], #4

08004d68 <_ZN9Bosch_BMA20startInterruptConfigEv>:
 8004d68:	4602      	mov	r2, r0
 8004d6a:	2140      	movs	r1, #64	; 0x40
 8004d6c:	205e      	movs	r0, #94	; 0x5e
 8004d6e:	f000 b8fd 	b.w	8004f6c <_Z8readRegshhPh>

08004d72 <_ZN9Bosch_BMA20writeInterruptConfigEv>:
 8004d72:	4601      	mov	r1, r0
 8004d74:	2240      	movs	r2, #64	; 0x40
 8004d76:	205e      	movs	r0, #94	; 0x5e
 8004d78:	f000 b8a2 	b.w	8004ec0 <_Z8writeReghPhh>

08004d7c <_ZN9Bosch_BMA15setTapDetectionEhhh>:
 8004d7c:	0052      	lsls	r2, r2, #1
 8004d7e:	0109      	lsls	r1, r1, #4
 8004d80:	f002 020e 	and.w	r2, r2, #14
 8004d84:	f001 0110 	and.w	r1, r1, #16
 8004d88:	430a      	orrs	r2, r1
 8004d8a:	f003 0301 	and.w	r3, r3, #1
 8004d8e:	431a      	orrs	r2, r3
 8004d90:	f880 2038 	strb.w	r2, [r0, #56]	; 0x38
 8004d94:	4770      	bx	lr

08004d96 <_ZN9Bosch_BMA20setWristTiltFunctionEh>:
 8004d96:	f001 0101 	and.w	r1, r1, #1
 8004d9a:	f880 103a 	strb.w	r1, [r0, #58]	; 0x3a
 8004d9e:	4770      	bx	lr

08004da0 <_ZN9Bosch_BMA14setStepCounterEh>:
 8004da0:	f011 0101 	ands.w	r1, r1, #1
 8004da4:	bf1a      	itte	ne
 8004da6:	2310      	movne	r3, #16
 8004da8:	f880 3037 	strbne.w	r3, [r0, #55]	; 0x37
 8004dac:	f880 1037 	strbeq.w	r1, [r0, #55]	; 0x37
 8004db0:	4770      	bx	lr

08004db2 <_ZN9Bosch_BMA11setConfigIDEh>:
 8004db2:	f880 103c 	strb.w	r1, [r0, #60]	; 0x3c
 8004db6:	4770      	bx	lr

08004db8 <_ZN9Bosch_BMA14setAxisMappingEhhhhhh>:
 8004db8:	b5f0      	push	{r4, r5, r6, r7, lr}
 8004dba:	f89d 7014 	ldrb.w	r7, [sp, #20]
 8004dbe:	f89d 5018 	ldrb.w	r5, [sp, #24]
 8004dc2:	f89d 601c 	ldrb.w	r6, [sp, #28]
 8004dc6:	017c      	lsls	r4, r7, #5
 8004dc8:	ea4f 0cc3 	mov.w	ip, r3, lsl #3
 8004dcc:	f004 0420 	and.w	r4, r4, #32
 8004dd0:	ea44 1485 	orr.w	r4, r4, r5, lsl #6
 8004dd4:	f00c 0c18 	and.w	ip, ip, #24
 8004dd8:	ea44 040c 	orr.w	r4, r4, ip
 8004ddc:	ea4f 0c82 	mov.w	ip, r2, lsl #2
 8004de0:	f00c 0c04 	and.w	ip, ip, #4
 8004de4:	f001 0103 	and.w	r1, r1, #3
 8004de8:	ea44 040c 	orr.w	r4, r4, ip
 8004dec:	430c      	orrs	r4, r1
 8004dee:	f880 403e 	strb.w	r4, [r0, #62]	; 0x3e
 8004df2:	4401      	add	r1, r0
 8004df4:	f006 0401 	and.w	r4, r6, #1
 8004df8:	f880 403f 	strb.w	r4, [r0, #63]	; 0x3f
 8004dfc:	f003 0303 	and.w	r3, r3, #3
 8004e00:	f891 1046 	ldrb.w	r1, [r1, #70]	; 0x46
 8004e04:	f880 1040 	strb.w	r1, [r0, #64]	; 0x40
 8004e08:	4403      	add	r3, r0
 8004e0a:	f880 2041 	strb.w	r2, [r0, #65]	; 0x41
 8004e0e:	f005 0503 	and.w	r5, r5, #3
 8004e12:	f893 3046 	ldrb.w	r3, [r3, #70]	; 0x46
 8004e16:	f880 3042 	strb.w	r3, [r0, #66]	; 0x42
 8004e1a:	4405      	add	r5, r0
 8004e1c:	f880 7043 	strb.w	r7, [r0, #67]	; 0x43
 8004e20:	f895 3046 	ldrb.w	r3, [r5, #70]	; 0x46
 8004e24:	f880 3044 	strb.w	r3, [r0, #68]	; 0x44
 8004e28:	f880 6045 	strb.w	r6, [r0, #69]	; 0x45
 8004e2c:	bdf0      	pop	{r4, r5, r6, r7, pc}
	...

08004e30 <_Z22get_bma456_config_filet>:
 8004e30:	f241 13af 	movw	r3, #4527	; 0x11af
 8004e34:	4298      	cmp	r0, r3
 8004e36:	4b04      	ldr	r3, [pc, #16]	; (8004e48 <_Z22get_bma456_config_filet+0x18>)
 8004e38:	bf82      	ittt	hi
 8004e3a:	f000 0003 	andhi.w	r0, r0, #3
 8004e3e:	18c0      	addhi	r0, r0, r3
 8004e40:	f241 13b0 	movwhi	r3, #4528	; 0x11b0
 8004e44:	5cc0      	ldrb	r0, [r0, r3]
 8004e46:	4770      	bx	lr
 8004e48:	08005400 	.word	0x08005400

08004e4c <_Z12saveReadDataPh>:
 8004e4c:	b530      	push	{r4, r5, lr}
 8004e4e:	4b08      	ldr	r3, [pc, #32]	; (8004e70 <_Z12saveReadDataPh+0x24>)
 8004e50:	4c08      	ldr	r4, [pc, #32]	; (8004e74 <_Z12saveReadDataPh+0x28>)
 8004e52:	781d      	ldrb	r5, [r3, #0]
 8004e54:	4602      	mov	r2, r0
 8004e56:	1a11      	subs	r1, r2, r0
 8004e58:	b2c9      	uxtb	r1, r1
 8004e5a:	428d      	cmp	r5, r1
 8004e5c:	d904      	bls.n	8004e68 <_Z12saveReadDataPh+0x1c>
 8004e5e:	f812 1f01 	ldrb.w	r1, [r2, #1]!
 8004e62:	f804 1f01 	strb.w	r1, [r4, #1]!
 8004e66:	e7f6      	b.n	8004e56 <_Z12saveReadDataPh+0xa>
 8004e68:	2200      	movs	r2, #0
 8004e6a:	701a      	strb	r2, [r3, #0]
 8004e6c:	bd30      	pop	{r4, r5, pc}
 8004e6e:	bf00      	nop
 8004e70:	200002d4 	.word	0x200002d4
 8004e74:	2000024f 	.word	0x2000024f

08004e78 <_Z19set_SPI_activate_CSPFvhE>:
 8004e78:	4b01      	ldr	r3, [pc, #4]	; (8004e80 <_Z19set_SPI_activate_CSPFvhE+0x8>)
 8004e7a:	6018      	str	r0, [r3, #0]
 8004e7c:	4770      	bx	lr
 8004e7e:	bf00      	nop
 8004e80:	2000024c 	.word	0x2000024c

08004e84 <_Z8writeReghh>:
 8004e84:	b510      	push	{r4, lr}
 8004e86:	4c0c      	ldr	r4, [pc, #48]	; (8004eb8 <_Z8writeReghh+0x34>)
 8004e88:	4b0c      	ldr	r3, [pc, #48]	; (8004ebc <_Z8writeReghh+0x38>)
 8004e8a:	6822      	ldr	r2, [r4, #0]
 8004e8c:	7059      	strb	r1, [r3, #1]
 8004e8e:	f000 007f 	and.w	r0, r0, #127	; 0x7f
 8004e92:	7018      	strb	r0, [r3, #0]
 8004e94:	b10a      	cbz	r2, 8004e9a <_Z8writeReghh+0x16>
 8004e96:	2001      	movs	r0, #1
 8004e98:	4790      	blx	r2
 8004e9a:	2200      	movs	r2, #0
 8004e9c:	2102      	movs	r1, #2
 8004e9e:	4807      	ldr	r0, [pc, #28]	; (8004ebc <_Z8writeReghh+0x38>)
 8004ea0:	f7ff fd24 	bl	80048ec <_Z9spi_writePhhPFvS_E>
 8004ea4:	f7ff fd40 	bl	8004928 <_Z8spi_waitv>
 8004ea8:	6823      	ldr	r3, [r4, #0]
 8004eaa:	b11b      	cbz	r3, 8004eb4 <_Z8writeReghh+0x30>
 8004eac:	2000      	movs	r0, #0
 8004eae:	e8bd 4010 	ldmia.w	sp!, {r4, lr}
 8004eb2:	4718      	bx	r3
 8004eb4:	bd10      	pop	{r4, pc}
 8004eb6:	bf00      	nop
 8004eb8:	2000024c 	.word	0x2000024c
 8004ebc:	200002d5 	.word	0x200002d5

08004ec0 <_Z8writeReghPhh>:
 8004ec0:	e92d 41f0 	stmdb	sp!, {r4, r5, r6, r7, r8, lr}
 8004ec4:	4e11      	ldr	r6, [pc, #68]	; (8004f0c <_Z8writeReghPhh+0x4c>)
 8004ec6:	4d12      	ldr	r5, [pc, #72]	; (8004f10 <_Z8writeReghPhh+0x50>)
 8004ec8:	4614      	mov	r4, r2
 8004eca:	6832      	ldr	r2, [r6, #0]
 8004ecc:	f000 007f 	and.w	r0, r0, #127	; 0x7f
 8004ed0:	460f      	mov	r7, r1
 8004ed2:	7028      	strb	r0, [r5, #0]
 8004ed4:	b10a      	cbz	r2, 8004eda <_Z8writeReghPhh+0x1a>
 8004ed6:	2001      	movs	r0, #1
 8004ed8:	4790      	blx	r2
 8004eda:	2300      	movs	r3, #0
 8004edc:	b2da      	uxtb	r2, r3
 8004ede:	4294      	cmp	r4, r2
 8004ee0:	d904      	bls.n	8004eec <_Z8writeReghPhh+0x2c>
 8004ee2:	18ea      	adds	r2, r5, r3
 8004ee4:	5cf8      	ldrb	r0, [r7, r3]
 8004ee6:	7050      	strb	r0, [r2, #1]
 8004ee8:	3301      	adds	r3, #1
 8004eea:	e7f7      	b.n	8004edc <_Z8writeReghPhh+0x1c>
 8004eec:	1c61      	adds	r1, r4, #1
 8004eee:	2200      	movs	r2, #0
 8004ef0:	b2c9      	uxtb	r1, r1
 8004ef2:	4807      	ldr	r0, [pc, #28]	; (8004f10 <_Z8writeReghPhh+0x50>)
 8004ef4:	f7ff fcfa 	bl	80048ec <_Z9spi_writePhhPFvS_E>
 8004ef8:	f7ff fd16 	bl	8004928 <_Z8spi_waitv>
 8004efc:	6833      	ldr	r3, [r6, #0]
 8004efe:	b11b      	cbz	r3, 8004f08 <_Z8writeReghPhh+0x48>
 8004f00:	2000      	movs	r0, #0
 8004f02:	e8bd 41f0 	ldmia.w	sp!, {r4, r5, r6, r7, r8, lr}
 8004f06:	4718      	bx	r3
 8004f08:	e8bd 81f0 	ldmia.w	sp!, {r4, r5, r6, r7, r8, pc}
 8004f0c:	2000024c 	.word	0x2000024c
 8004f10:	200002d5 	.word	0x200002d5

08004f14 <_Z7readReghh>:
 8004f14:	b538      	push	{r3, r4, r5, lr}
 8004f16:	4c10      	ldr	r4, [pc, #64]	; (8004f58 <_Z7readReghh+0x44>)
 8004f18:	4b10      	ldr	r3, [pc, #64]	; (8004f5c <_Z7readReghh+0x48>)
 8004f1a:	6822      	ldr	r2, [r4, #0]
 8004f1c:	f060 007f 	orn	r0, r0, #127	; 0x7f
 8004f20:	460d      	mov	r5, r1
 8004f22:	7018      	strb	r0, [r3, #0]
 8004f24:	b10a      	cbz	r2, 8004f2a <_Z7readReghh+0x16>
 8004f26:	2001      	movs	r0, #1
 8004f28:	4790      	blx	r2
 8004f2a:	2200      	movs	r2, #0
 8004f2c:	2101      	movs	r1, #1
 8004f2e:	480b      	ldr	r0, [pc, #44]	; (8004f5c <_Z7readReghh+0x48>)
 8004f30:	f7ff fcdc 	bl	80048ec <_Z9spi_writePhhPFvS_E>
 8004f34:	f7ff fcf8 	bl	8004928 <_Z8spi_waitv>
 8004f38:	4b09      	ldr	r3, [pc, #36]	; (8004f60 <_Z7readReghh+0x4c>)
 8004f3a:	490a      	ldr	r1, [pc, #40]	; (8004f64 <_Z7readReghh+0x50>)
 8004f3c:	701d      	strb	r5, [r3, #0]
 8004f3e:	1c68      	adds	r0, r5, #1
 8004f40:	b2c0      	uxtb	r0, r0
 8004f42:	f7ff fcdd 	bl	8004900 <_Z8spi_readhPFvPhE>
 8004f46:	f7ff fcef 	bl	8004928 <_Z8spi_waitv>
 8004f4a:	6823      	ldr	r3, [r4, #0]
 8004f4c:	b10b      	cbz	r3, 8004f52 <_Z7readReghh+0x3e>
 8004f4e:	2000      	movs	r0, #0
 8004f50:	4798      	blx	r3
 8004f52:	4b05      	ldr	r3, [pc, #20]	; (8004f68 <_Z7readReghh+0x54>)
 8004f54:	7818      	ldrb	r0, [r3, #0]
 8004f56:	bd38      	pop	{r3, r4, r5, pc}
 8004f58:	2000024c 	.word	0x2000024c
 8004f5c:	200002d5 	.word	0x200002d5
 8004f60:	200002d4 	.word	0x200002d4
 8004f64:	08004e4d 	.word	0x08004e4d
 8004f68:	20000250 	.word	0x20000250

08004f6c <_Z8readRegshhPh>:
 8004f6c:	b570      	push	{r4, r5, r6, lr}
 8004f6e:	4c15      	ldr	r4, [pc, #84]	; (8004fc4 <_Z8readRegshhPh+0x58>)
 8004f70:	4b15      	ldr	r3, [pc, #84]	; (8004fc8 <_Z8readRegshhPh+0x5c>)
 8004f72:	4616      	mov	r6, r2
 8004f74:	6822      	ldr	r2, [r4, #0]
 8004f76:	f060 007f 	orn	r0, r0, #127	; 0x7f
 8004f7a:	460d      	mov	r5, r1
 8004f7c:	7018      	strb	r0, [r3, #0]
 8004f7e:	b10a      	cbz	r2, 8004f84 <_Z8readRegshhPh+0x18>
 8004f80:	2001      	movs	r0, #1
 8004f82:	4790      	blx	r2
 8004f84:	2200      	movs	r2, #0
 8004f86:	2101      	movs	r1, #1
 8004f88:	480f      	ldr	r0, [pc, #60]	; (8004fc8 <_Z8readRegshhPh+0x5c>)
 8004f8a:	f7ff fcaf 	bl	80048ec <_Z9spi_writePhhPFvS_E>
 8004f8e:	f7ff fccb 	bl	8004928 <_Z8spi_waitv>
 8004f92:	4b0e      	ldr	r3, [pc, #56]	; (8004fcc <_Z8readRegshhPh+0x60>)
 8004f94:	490e      	ldr	r1, [pc, #56]	; (8004fd0 <_Z8readRegshhPh+0x64>)
 8004f96:	701d      	strb	r5, [r3, #0]
 8004f98:	1c68      	adds	r0, r5, #1
 8004f9a:	b2c0      	uxtb	r0, r0
 8004f9c:	f7ff fcb0 	bl	8004900 <_Z8spi_readhPFvPhE>
 8004fa0:	f7ff fcc2 	bl	8004928 <_Z8spi_waitv>
 8004fa4:	6823      	ldr	r3, [r4, #0]
 8004fa6:	b10b      	cbz	r3, 8004fac <_Z8readRegshhPh+0x40>
 8004fa8:	2000      	movs	r0, #0
 8004faa:	4798      	blx	r3
 8004fac:	4a09      	ldr	r2, [pc, #36]	; (8004fd4 <_Z8readRegshhPh+0x68>)
 8004fae:	b13e      	cbz	r6, 8004fc0 <_Z8readRegshhPh+0x54>
 8004fb0:	2300      	movs	r3, #0
 8004fb2:	b2d9      	uxtb	r1, r3
 8004fb4:	428d      	cmp	r5, r1
 8004fb6:	d903      	bls.n	8004fc0 <_Z8readRegshhPh+0x54>
 8004fb8:	5cd1      	ldrb	r1, [r2, r3]
 8004fba:	54f1      	strb	r1, [r6, r3]
 8004fbc:	3301      	adds	r3, #1
 8004fbe:	e7f8      	b.n	8004fb2 <_Z8readRegshhPh+0x46>
 8004fc0:	7810      	ldrb	r0, [r2, #0]
 8004fc2:	bd70      	pop	{r4, r5, r6, pc}
 8004fc4:	2000024c 	.word	0x2000024c
 8004fc8:	200002d5 	.word	0x200002d5
 8004fcc:	200002d4 	.word	0x200002d4
 8004fd0:	08004e4d 	.word	0x08004e4d
 8004fd4:	20000250 	.word	0x20000250

08004fd8 <_Z12stream_writePhth>:
 8004fd8:	b570      	push	{r4, r5, r6, lr}
 8004fda:	084c      	lsrs	r4, r1, #1
 8004fdc:	4605      	mov	r5, r0
 8004fde:	f004 010f 	and.w	r1, r4, #15
 8004fe2:	205b      	movs	r0, #91	; 0x5b
 8004fe4:	4616      	mov	r6, r2
 8004fe6:	f7ff ff4d 	bl	8004e84 <_Z8writeReghh>
 8004fea:	f3c4 1107 	ubfx	r1, r4, #4, #8
 8004fee:	205c      	movs	r0, #92	; 0x5c
 8004ff0:	f7ff ff48 	bl	8004e84 <_Z8writeReghh>
 8004ff4:	4632      	mov	r2, r6
 8004ff6:	4629      	mov	r1, r5
 8004ff8:	205e      	movs	r0, #94	; 0x5e
 8004ffa:	e8bd 4070 	ldmia.w	sp!, {r4, r5, r6, lr}
 8004ffe:	f7ff bf5f 	b.w	8004ec0 <_Z8writeReghPhh>
	...

08005004 <_Z13initComDriverv>:
 8005004:	b510      	push	{r4, lr}
 8005006:	4c0a      	ldr	r4, [pc, #40]	; (8005030 <_Z13initComDriverv+0x2c>)
 8005008:	2001      	movs	r0, #1
 800500a:	f7fb fa67 	bl	80004dc <HAL_Delay>
 800500e:	6822      	ldr	r2, [r4, #0]
 8005010:	b10a      	cbz	r2, 8005016 <_Z13initComDriverv+0x12>
 8005012:	2001      	movs	r0, #1
 8005014:	4790      	blx	r2
 8005016:	2001      	movs	r0, #1
 8005018:	f7fb fa60 	bl	80004dc <HAL_Delay>
 800501c:	6823      	ldr	r3, [r4, #0]
 800501e:	b10b      	cbz	r3, 8005024 <_Z13initComDriverv+0x20>
 8005020:	2000      	movs	r0, #0
 8005022:	4798      	blx	r3
 8005024:	2001      	movs	r0, #1
 8005026:	e8bd 4010 	ldmia.w	sp!, {r4, lr}
 800502a:	f7fb ba57 	b.w	80004dc <HAL_Delay>
 800502e:	bf00      	nop
 8005030:	2000024c 	.word	0x2000024c

08005034 <__libc_init_array>:
 8005034:	b570      	push	{r4, r5, r6, lr}
 8005036:	4e0d      	ldr	r6, [pc, #52]	; (800506c <__libc_init_array+0x38>)
 8005038:	4c0d      	ldr	r4, [pc, #52]	; (8005070 <__libc_init_array+0x3c>)
 800503a:	1ba4      	subs	r4, r4, r6
 800503c:	10a4      	asrs	r4, r4, #2
 800503e:	2500      	movs	r5, #0
 8005040:	42a5      	cmp	r5, r4
 8005042:	d109      	bne.n	8005058 <__libc_init_array+0x24>
 8005044:	4e0b      	ldr	r6, [pc, #44]	; (8005074 <__libc_init_array+0x40>)
 8005046:	4c0c      	ldr	r4, [pc, #48]	; (8005078 <__libc_init_array+0x44>)
 8005048:	f000 f820 	bl	800508c <_init>
 800504c:	1ba4      	subs	r4, r4, r6
 800504e:	10a4      	asrs	r4, r4, #2
 8005050:	2500      	movs	r5, #0
 8005052:	42a5      	cmp	r5, r4
 8005054:	d105      	bne.n	8005062 <__libc_init_array+0x2e>
 8005056:	bd70      	pop	{r4, r5, r6, pc}
 8005058:	f856 3025 	ldr.w	r3, [r6, r5, lsl #2]
 800505c:	4798      	blx	r3
 800505e:	3501      	adds	r5, #1
 8005060:	e7ee      	b.n	8005040 <__libc_init_array+0xc>
 8005062:	f856 3025 	ldr.w	r3, [r6, r5, lsl #2]
 8005066:	4798      	blx	r3
 8005068:	3501      	adds	r5, #1
 800506a:	e7f2      	b.n	8005052 <__libc_init_array+0x1e>
 800506c:	080065b8 	.word	0x080065b8
 8005070:	080065b8 	.word	0x080065b8
 8005074:	080065b8 	.word	0x080065b8
 8005078:	080065cc 	.word	0x080065cc

0800507c <memset>:
 800507c:	4402      	add	r2, r0
 800507e:	4603      	mov	r3, r0
 8005080:	4293      	cmp	r3, r2
 8005082:	d100      	bne.n	8005086 <memset+0xa>
 8005084:	4770      	bx	lr
 8005086:	f803 1b01 	strb.w	r1, [r3], #1
 800508a:	e7f9      	b.n	8005080 <memset+0x4>

0800508c <_init>:
 800508c:	b5f8      	push	{r3, r4, r5, r6, r7, lr}
 800508e:	bf00      	nop
 8005090:	bcf8      	pop	{r3, r4, r5, r6, r7}
 8005092:	bc08      	pop	{r3}
 8005094:	469e      	mov	lr, r3
 8005096:	4770      	bx	lr

08005098 <_fini>:
 8005098:	b5f8      	push	{r3, r4, r5, r6, r7, lr}
 800509a:	bf00      	nop
 800509c:	bcf8      	pop	{r3, r4, r5, r6, r7}
 800509e:	bc08      	pop	{r3}
 80050a0:	469e      	mov	lr, r3
 80050a2:	4770      	bx	lr
